
/challenge/integration-cimg-screenshot-win:     file format elf64-x86-64


Disassembly of section .init:

0000000000401000 <_init>:
  401000:	f3 0f 1e fa          	endbr64
  401004:	48 83 ec 08          	sub    rsp,0x8
  401008:	48 8b 05 e9 2f 01 00 	mov    rax,QWORD PTR [rip+0x12fe9]        # 413ff8 <__gmon_start__>
  40100f:	48 85 c0             	test   rax,rax
  401012:	74 02                	je     401016 <_init+0x16>
  401014:	ff d0                	call   rax
  401016:	48 83 c4 08          	add    rsp,0x8
  40101a:	c3                   	ret

Disassembly of section .plt:

0000000000401020 <.plt>:
  401020:	ff 35 22 2f 01 00    	push   QWORD PTR [rip+0x12f22]        # 413f48 <_GLOBAL_OFFSET_TABLE_+0x8>
  401026:	f2 ff 25 23 2f 01 00 	bnd jmp QWORD PTR [rip+0x12f23]        # 413f50 <_GLOBAL_OFFSET_TABLE_+0x10>
  40102d:	0f 1f 00             	nop    DWORD PTR [rax]
  401030:	f3 0f 1e fa          	endbr64
  401034:	68 00 00 00 00       	push   0x0
  401039:	f2 e9 e1 ff ff ff    	bnd jmp 401020 <.plt>
  40103f:	90                   	nop
  401040:	f3 0f 1e fa          	endbr64
  401044:	68 01 00 00 00       	push   0x1
  401049:	f2 e9 d1 ff ff ff    	bnd jmp 401020 <.plt>
  40104f:	90                   	nop
  401050:	f3 0f 1e fa          	endbr64
  401054:	68 02 00 00 00       	push   0x2
  401059:	f2 e9 c1 ff ff ff    	bnd jmp 401020 <.plt>
  40105f:	90                   	nop
  401060:	f3 0f 1e fa          	endbr64
  401064:	68 03 00 00 00       	push   0x3
  401069:	f2 e9 b1 ff ff ff    	bnd jmp 401020 <.plt>
  40106f:	90                   	nop
  401070:	f3 0f 1e fa          	endbr64
  401074:	68 04 00 00 00       	push   0x4
  401079:	f2 e9 a1 ff ff ff    	bnd jmp 401020 <.plt>
  40107f:	90                   	nop
  401080:	f3 0f 1e fa          	endbr64
  401084:	68 05 00 00 00       	push   0x5
  401089:	f2 e9 91 ff ff ff    	bnd jmp 401020 <.plt>
  40108f:	90                   	nop
  401090:	f3 0f 1e fa          	endbr64
  401094:	68 06 00 00 00       	push   0x6
  401099:	f2 e9 81 ff ff ff    	bnd jmp 401020 <.plt>
  40109f:	90                   	nop
  4010a0:	f3 0f 1e fa          	endbr64
  4010a4:	68 07 00 00 00       	push   0x7
  4010a9:	f2 e9 71 ff ff ff    	bnd jmp 401020 <.plt>
  4010af:	90                   	nop
  4010b0:	f3 0f 1e fa          	endbr64
  4010b4:	68 08 00 00 00       	push   0x8
  4010b9:	f2 e9 61 ff ff ff    	bnd jmp 401020 <.plt>
  4010bf:	90                   	nop
  4010c0:	f3 0f 1e fa          	endbr64
  4010c4:	68 09 00 00 00       	push   0x9
  4010c9:	f2 e9 51 ff ff ff    	bnd jmp 401020 <.plt>
  4010cf:	90                   	nop
  4010d0:	f3 0f 1e fa          	endbr64
  4010d4:	68 0a 00 00 00       	push   0xa
  4010d9:	f2 e9 41 ff ff ff    	bnd jmp 401020 <.plt>
  4010df:	90                   	nop
  4010e0:	f3 0f 1e fa          	endbr64
  4010e4:	68 0b 00 00 00       	push   0xb
  4010e9:	f2 e9 31 ff ff ff    	bnd jmp 401020 <.plt>
  4010ef:	90                   	nop
  4010f0:	f3 0f 1e fa          	endbr64
  4010f4:	68 0c 00 00 00       	push   0xc
  4010f9:	f2 e9 21 ff ff ff    	bnd jmp 401020 <.plt>
  4010ff:	90                   	nop
  401100:	f3 0f 1e fa          	endbr64
  401104:	68 0d 00 00 00       	push   0xd
  401109:	f2 e9 11 ff ff ff    	bnd jmp 401020 <.plt>
  40110f:	90                   	nop
  401110:	f3 0f 1e fa          	endbr64
  401114:	68 0e 00 00 00       	push   0xe
  401119:	f2 e9 01 ff ff ff    	bnd jmp 401020 <.plt>
  40111f:	90                   	nop
  401120:	f3 0f 1e fa          	endbr64
  401124:	68 0f 00 00 00       	push   0xf
  401129:	f2 e9 f1 fe ff ff    	bnd jmp 401020 <.plt>
  40112f:	90                   	nop
  401130:	f3 0f 1e fa          	endbr64
  401134:	68 10 00 00 00       	push   0x10
  401139:	f2 e9 e1 fe ff ff    	bnd jmp 401020 <.plt>
  40113f:	90                   	nop
  401140:	f3 0f 1e fa          	endbr64
  401144:	68 11 00 00 00       	push   0x11
  401149:	f2 e9 d1 fe ff ff    	bnd jmp 401020 <.plt>
  40114f:	90                   	nop
  401150:	f3 0f 1e fa          	endbr64
  401154:	68 12 00 00 00       	push   0x12
  401159:	f2 e9 c1 fe ff ff    	bnd jmp 401020 <.plt>
  40115f:	90                   	nop

Disassembly of section .plt.sec:

0000000000401160 <__snprintf_chk@plt>:
  401160:	f3 0f 1e fa          	endbr64
  401164:	f2 ff 25 ed 2d 01 00 	bnd jmp QWORD PTR [rip+0x12ded]        # 413f58 <__snprintf_chk@GLIBC_2.3.4>
  40116b:	0f 1f 44 00 00       	nop    DWORD PTR [rax+rax*1+0x0]

0000000000401170 <free@plt>:
  401170:	f3 0f 1e fa          	endbr64
  401174:	f2 ff 25 e5 2d 01 00 	bnd jmp QWORD PTR [rip+0x12de5]        # 413f60 <free@GLIBC_2.2.5>
  40117b:	0f 1f 44 00 00       	nop    DWORD PTR [rax+rax*1+0x0]

0000000000401180 <__errno_location@plt>:
  401180:	f3 0f 1e fa          	endbr64
  401184:	f2 ff 25 dd 2d 01 00 	bnd jmp QWORD PTR [rip+0x12ddd]        # 413f68 <__errno_location@GLIBC_2.2.5>
  40118b:	0f 1f 44 00 00       	nop    DWORD PTR [rax+rax*1+0x0]

0000000000401190 <puts@plt>:
  401190:	f3 0f 1e fa          	endbr64
  401194:	f2 ff 25 d5 2d 01 00 	bnd jmp QWORD PTR [rip+0x12dd5]        # 413f70 <puts@GLIBC_2.2.5>
  40119b:	0f 1f 44 00 00       	nop    DWORD PTR [rax+rax*1+0x0]

00000000004011a0 <write@plt>:
  4011a0:	f3 0f 1e fa          	endbr64
  4011a4:	f2 ff 25 cd 2d 01 00 	bnd jmp QWORD PTR [rip+0x12dcd]        # 413f78 <write@GLIBC_2.2.5>
  4011ab:	0f 1f 44 00 00       	nop    DWORD PTR [rax+rax*1+0x0]

00000000004011b0 <dup2@plt>:
  4011b0:	f3 0f 1e fa          	endbr64
  4011b4:	f2 ff 25 c5 2d 01 00 	bnd jmp QWORD PTR [rip+0x12dc5]        # 413f80 <dup2@GLIBC_2.2.5>
  4011bb:	0f 1f 44 00 00       	nop    DWORD PTR [rax+rax*1+0x0]

00000000004011c0 <nanosleep@plt>:
  4011c0:	f3 0f 1e fa          	endbr64
  4011c4:	f2 ff 25 bd 2d 01 00 	bnd jmp QWORD PTR [rip+0x12dbd]        # 413f88 <nanosleep@GLIBC_2.2.5>
  4011cb:	0f 1f 44 00 00       	nop    DWORD PTR [rax+rax*1+0x0]

00000000004011d0 <fputs@plt>:
  4011d0:	f3 0f 1e fa          	endbr64
  4011d4:	f2 ff 25 b5 2d 01 00 	bnd jmp QWORD PTR [rip+0x12db5]        # 413f90 <fputs@GLIBC_2.2.5>
  4011db:	0f 1f 44 00 00       	nop    DWORD PTR [rax+rax*1+0x0]

00000000004011e0 <geteuid@plt>:
  4011e0:	f3 0f 1e fa          	endbr64
  4011e4:	f2 ff 25 ad 2d 01 00 	bnd jmp QWORD PTR [rip+0x12dad]        # 413f98 <geteuid@GLIBC_2.2.5>
  4011eb:	0f 1f 44 00 00       	nop    DWORD PTR [rax+rax*1+0x0]

00000000004011f0 <fputc@plt>:
  4011f0:	f3 0f 1e fa          	endbr64
  4011f4:	f2 ff 25 a5 2d 01 00 	bnd jmp QWORD PTR [rip+0x12da5]        # 413fa0 <fputc@GLIBC_2.2.5>
  4011fb:	0f 1f 44 00 00       	nop    DWORD PTR [rax+rax*1+0x0]

0000000000401200 <read@plt>:
  401200:	f3 0f 1e fa          	endbr64
  401204:	f2 ff 25 9d 2d 01 00 	bnd jmp QWORD PTR [rip+0x12d9d]        # 413fa8 <read@GLIBC_2.2.5>
  40120b:	0f 1f 44 00 00       	nop    DWORD PTR [rax+rax*1+0x0]

0000000000401210 <strcmp@plt>:
  401210:	f3 0f 1e fa          	endbr64
  401214:	f2 ff 25 95 2d 01 00 	bnd jmp QWORD PTR [rip+0x12d95]        # 413fb0 <strcmp@GLIBC_2.2.5>
  40121b:	0f 1f 44 00 00       	nop    DWORD PTR [rax+rax*1+0x0]

0000000000401220 <malloc@plt>:
  401220:	f3 0f 1e fa          	endbr64
  401224:	f2 ff 25 8d 2d 01 00 	bnd jmp QWORD PTR [rip+0x12d8d]        # 413fb8 <malloc@GLIBC_2.2.5>
  40122b:	0f 1f 44 00 00       	nop    DWORD PTR [rax+rax*1+0x0]

0000000000401230 <__printf_chk@plt>:
  401230:	f3 0f 1e fa          	endbr64
  401234:	f2 ff 25 85 2d 01 00 	bnd jmp QWORD PTR [rip+0x12d85]        # 413fc0 <__printf_chk@GLIBC_2.3.4>
  40123b:	0f 1f 44 00 00       	nop    DWORD PTR [rax+rax*1+0x0]

0000000000401240 <setvbuf@plt>:
  401240:	f3 0f 1e fa          	endbr64
  401244:	f2 ff 25 7d 2d 01 00 	bnd jmp QWORD PTR [rip+0x12d7d]        # 413fc8 <setvbuf@GLIBC_2.2.5>
  40124b:	0f 1f 44 00 00       	nop    DWORD PTR [rax+rax*1+0x0]

0000000000401250 <open@plt>:
  401250:	f3 0f 1e fa          	endbr64
  401254:	f2 ff 25 75 2d 01 00 	bnd jmp QWORD PTR [rip+0x12d75]        # 413fd0 <open@GLIBC_2.2.5>
  40125b:	0f 1f 44 00 00       	nop    DWORD PTR [rax+rax*1+0x0]

0000000000401260 <exit@plt>:
  401260:	f3 0f 1e fa          	endbr64
  401264:	f2 ff 25 6d 2d 01 00 	bnd jmp QWORD PTR [rip+0x12d6d]        # 413fd8 <exit@GLIBC_2.2.5>
  40126b:	0f 1f 44 00 00       	nop    DWORD PTR [rax+rax*1+0x0]

0000000000401270 <__fprintf_chk@plt>:
  401270:	f3 0f 1e fa          	endbr64
  401274:	f2 ff 25 65 2d 01 00 	bnd jmp QWORD PTR [rip+0x12d65]        # 413fe0 <__fprintf_chk@GLIBC_2.3.4>
  40127b:	0f 1f 44 00 00       	nop    DWORD PTR [rax+rax*1+0x0]

0000000000401280 <strerror@plt>:
  401280:	f3 0f 1e fa          	endbr64
  401284:	f2 ff 25 5d 2d 01 00 	bnd jmp QWORD PTR [rip+0x12d5d]        # 413fe8 <strerror@GLIBC_2.2.5>
  40128b:	0f 1f 44 00 00       	nop    DWORD PTR [rax+rax*1+0x0]

Disassembly of section .text:

0000000000401290 <disable_buffering>:
  401290:	f3 0f 1e fa          	endbr64
  401294:	50                   	push   rax
  401295:	48 8b 3d 94 2d 01 00 	mov    rdi,QWORD PTR [rip+0x12d94]        # 414030 <stdin@GLIBC_2.2.5>
  40129c:	31 c9                	xor    ecx,ecx
  40129e:	ba 02 00 00 00       	mov    edx,0x2
  4012a3:	31 f6                	xor    esi,esi
  4012a5:	e8 96 ff ff ff       	call   401240 <setvbuf@plt>
  4012aa:	48 8b 3d 6f 2d 01 00 	mov    rdi,QWORD PTR [rip+0x12d6f]        # 414020 <stdout@GLIBC_2.2.5>
  4012b1:	b9 01 00 00 00       	mov    ecx,0x1
  4012b6:	31 f6                	xor    esi,esi
  4012b8:	ba 02 00 00 00       	mov    edx,0x2
  4012bd:	41 58                	pop    r8
  4012bf:	e9 7c ff ff ff       	jmp    401240 <setvbuf@plt>

00000000004012c4 <main>:
  4012c4:	f3 0f 1e fa          	endbr64
  4012c8:	41 54                	push   r12
  4012ca:	55                   	push   rbp
  4012cb:	53                   	push   rbx
  4012cc:	48 81 ec 00 10 00 00 	sub    rsp,0x1000
  4012d3:	48 83 0c 24 00       	or     QWORD PTR [rsp],0x0
  4012d8:	48 83 ec 20          	sub    rsp,0x20
  4012dc:	31 c0                	xor    eax,eax
  4012de:	b9 06 04 00 00       	mov    ecx,0x406
  4012e3:	41 89 f8             	mov    r8d,edi
  4012e6:	48 8d 7c 24 08       	lea    rdi,[rsp+0x8]
  4012eb:	48 8d 6c 24 08       	lea    rbp,[rsp+0x8]
  4012f0:	f3 ab                	rep stos DWORD PTR es:[rdi],eax
  4012f2:	41 ff c8             	dec    r8d
  4012f5:	7e 4f                	jle    401346 <main+0x82>
  4012f7:	4c 8b 66 08          	mov    r12,QWORD PTR [rsi+0x8]
  4012fb:	48 83 c9 ff          	or     rcx,0xffffffffffffffff
  4012ff:	48 8d 35 34 10 01 00 	lea    rsi,[rip+0x11034]        # 41233a <_IO_stdin_used+0x33a>
  401306:	4c 89 e7             	mov    rdi,r12
  401309:	f2 ae                	repnz scas al,BYTE PTR es:[rdi]
  40130b:	48 f7 d1             	not    rcx
  40130e:	49 8d 7c 0c fa       	lea    rdi,[r12+rcx*1-0x6]
  401313:	e8 f8 fe ff ff       	call   401210 <strcmp@plt>
  401318:	85 c0                	test   eax,eax
  40131a:	74 15                	je     401331 <main+0x6d>
  40131c:	48 8d 35 1d 10 01 00 	lea    rsi,[rip+0x1101d]        # 412340 <_IO_stdin_used+0x340>
  401323:	bf 01 00 00 00       	mov    edi,0x1
  401328:	31 c0                	xor    eax,eax
  40132a:	e8 01 ff ff ff       	call   401230 <__printf_chk@plt>
  40132f:	eb 45                	jmp    401376 <main+0xb2>
  401331:	31 f6                	xor    esi,esi
  401333:	4c 89 e7             	mov    rdi,r12
  401336:	31 c0                	xor    eax,eax
  401338:	e8 13 ff ff ff       	call   401250 <open@plt>
  40133d:	31 f6                	xor    esi,esi
  40133f:	89 c7                	mov    edi,eax
  401341:	e8 6a fe ff ff       	call   4011b0 <dup2@plt>
  401346:	41 83 c8 ff          	or     r8d,0xffffffff
  40134a:	31 ff                	xor    edi,edi
  40134c:	48 8d 0d 11 10 01 00 	lea    rcx,[rip+0x11011]        # 412364 <_IO_stdin_used+0x364>
  401353:	48 89 ee             	mov    rsi,rbp
  401356:	ba 0c 00 00 00       	mov    edx,0xc
  40135b:	e8 0e fe 00 00       	call   41116e <read_exact>
  401360:	81 7c 24 08 63 49 4d 	cmp    DWORD PTR [rsp+0x8],0x474d4963
  401367:	47 
  401368:	74 14                	je     40137e <main+0xba>
  40136a:	48 8d 3d 16 10 01 00 	lea    rdi,[rip+0x11016]        # 412387 <_IO_stdin_used+0x387>
  401371:	e8 1a fe ff ff       	call   401190 <puts@plt>
  401376:	83 cf ff             	or     edi,0xffffffff
  401379:	e8 e2 fe ff ff       	call   401260 <exit@plt>
  40137e:	66 83 7c 24 0c 04    	cmp    WORD PTR [rsp+0xc],0x4
  401384:	48 8d 3d 19 10 01 00 	lea    rdi,[rip+0x11019]        # 4123a4 <_IO_stdin_used+0x3a4>
  40138b:	75 e4                	jne    401371 <main+0xad>
  40138d:	48 89 ef             	mov    rdi,rbp
  401390:	48 8d 1d 75 10 01 00 	lea    rbx,[rip+0x11075]        # 41240c <_IO_stdin_used+0x40c>
  401397:	e8 93 06 01 00       	call   411a2f <initialize_framebuffer>
  40139c:	8b 44 24 10          	mov    eax,DWORD PTR [rsp+0x10]
  4013a0:	8d 50 ff             	lea    edx,[rax-0x1]
  4013a3:	89 54 24 10          	mov    DWORD PTR [rsp+0x10],edx
  4013a7:	85 c0                	test   eax,eax
  4013a9:	0f 84 be 00 00 00    	je     40146d <main+0x1a9>
  4013af:	48 8d 74 24 06       	lea    rsi,[rsp+0x6]
  4013b4:	41 83 c8 ff          	or     r8d,0xffffffff
  4013b8:	ba 02 00 00 00       	mov    edx,0x2
  4013bd:	31 ff                	xor    edi,edi
  4013bf:	48 8d 0d fa 0f 01 00 	lea    rcx,[rip+0x10ffa]        # 4123c0 <_IO_stdin_used+0x3c0>
  4013c6:	e8 a3 fd 00 00       	call   41116e <read_exact>
  4013cb:	0f b7 4c 24 06       	movzx  ecx,WORD PTR [rsp+0x6]
  4013d0:	66 83 f9 07          	cmp    cx,0x7
  4013d4:	77 1a                	ja     4013f0 <main+0x12c>
  4013d6:	66 85 c9             	test   cx,cx
  4013d9:	74 73                	je     40144e <main+0x18a>
  4013db:	ff c9                	dec    ecx
  4013dd:	66 83 f9 06          	cmp    cx,0x6
  4013e1:	77 66                	ja     401449 <main+0x185>
  4013e3:	0f b7 c9             	movzx  ecx,cx
  4013e6:	48 63 04 8b          	movsxd rax,DWORD PTR [rbx+rcx*4]
  4013ea:	48 01 d8             	add    rax,rbx
  4013ed:	3e ff e0             	notrack jmp rax
  4013f0:	66 81 f9 39 05       	cmp    cx,0x539
  4013f5:	75 57                	jne    40144e <main+0x18a>
  4013f7:	48 89 ef             	mov    rdi,rbp
  4013fa:	e8 55 04 01 00       	call   411854 <handle_1337>
  4013ff:	eb 9b                	jmp    40139c <main+0xd8>
  401401:	48 89 ef             	mov    rdi,rbp
  401404:	e8 b5 fd 00 00       	call   4111be <handle_1>
  401409:	eb 91                	jmp    40139c <main+0xd8>
  40140b:	48 89 ef             	mov    rdi,rbp
  40140e:	e8 08 ff 00 00       	call   41131b <handle_2>
  401413:	eb 87                	jmp    40139c <main+0xd8>
  401415:	48 89 ef             	mov    rdi,rbp
  401418:	e8 de 00 01 00       	call   4114fb <handle_3>
  40141d:	e9 7a ff ff ff       	jmp    40139c <main+0xd8>
  401422:	48 89 ef             	mov    rdi,rbp
  401425:	e8 fd 01 01 00       	call   411627 <handle_4>
  40142a:	e9 6d ff ff ff       	jmp    40139c <main+0xd8>
  40142f:	48 89 ef             	mov    rdi,rbp
  401432:	e8 a4 05 01 00       	call   4119db <handle_6>
  401437:	e9 60 ff ff ff       	jmp    40139c <main+0xd8>
  40143c:	48 89 ef             	mov    rdi,rbp
  40143f:	e8 e2 04 01 00       	call   411926 <handle_7>
  401444:	e9 53 ff ff ff       	jmp    40139c <main+0xd8>
  401449:	b9 05 00 00 00       	mov    ecx,0x5
  40144e:	48 8b 3d eb 2b 01 00 	mov    rdi,QWORD PTR [rip+0x12beb]        # 414040 <stderr@GLIBC_2.2.5>
  401455:	48 8d 15 8b 0f 01 00 	lea    rdx,[rip+0x10f8b]        # 4123e7 <_IO_stdin_used+0x3e7>
  40145c:	be 01 00 00 00       	mov    esi,0x1
  401461:	31 c0                	xor    eax,eax
  401463:	e8 08 fe ff ff       	call   401270 <__fprintf_chk@plt>
  401468:	e9 09 ff ff ff       	jmp    401376 <main+0xb2>
  40146d:	48 89 ef             	mov    rdi,rbp
  401470:	31 f6                	xor    esi,esi
  401472:	e8 03 05 01 00       	call   41197a <display>
  401477:	48 81 c4 20 10 00 00 	add    rsp,0x1020
  40147e:	31 c0                	xor    eax,eax
  401480:	5b                   	pop    rbx
  401481:	5d                   	pop    rbp
  401482:	41 5c                	pop    r12
  401484:	c3                   	ret
  401485:	66 2e 0f 1f 84 00 00 	cs nop WORD PTR [rax+rax*1+0x0]
  40148c:	00 00 00 
  40148f:	90                   	nop

0000000000401490 <_start>:
  401490:	f3 0f 1e fa          	endbr64
  401494:	31 ed                	xor    ebp,ebp
  401496:	49 89 d1             	mov    r9,rdx
  401499:	5e                   	pop    rsi
  40149a:	48 89 e2             	mov    rdx,rsp
  40149d:	48 83 e4 f0          	and    rsp,0xfffffffffffffff0
  4014a1:	50                   	push   rax
  4014a2:	54                   	push   rsp
  4014a3:	49 c7 c0 60 1b 41 00 	mov    r8,0x411b60
  4014aa:	48 c7 c1 f0 1a 41 00 	mov    rcx,0x411af0
  4014b1:	48 c7 c7 c4 12 40 00 	mov    rdi,0x4012c4
  4014b8:	ff 15 32 2b 01 00    	call   QWORD PTR [rip+0x12b32]        # 413ff0 <__libc_start_main@GLIBC_2.2.5>
  4014be:	f4                   	hlt
  4014bf:	90                   	nop

00000000004014c0 <_dl_relocate_static_pie>:
  4014c0:	f3 0f 1e fa          	endbr64
  4014c4:	c3                   	ret
  4014c5:	66 2e 0f 1f 84 00 00 	cs nop WORD PTR [rax+rax*1+0x0]
  4014cc:	00 00 00 
  4014cf:	90                   	nop

00000000004014d0 <deregister_tm_clones>:
  4014d0:	b8 10 40 41 00       	mov    eax,0x414010
  4014d5:	48 3d 10 40 41 00    	cmp    rax,0x414010
  4014db:	74 13                	je     4014f0 <deregister_tm_clones+0x20>
  4014dd:	b8 00 00 00 00       	mov    eax,0x0
  4014e2:	48 85 c0             	test   rax,rax
  4014e5:	74 09                	je     4014f0 <deregister_tm_clones+0x20>
  4014e7:	bf 10 40 41 00       	mov    edi,0x414010
  4014ec:	ff e0                	jmp    rax
  4014ee:	66 90                	xchg   ax,ax
  4014f0:	c3                   	ret
  4014f1:	66 66 2e 0f 1f 84 00 	data16 cs nop WORD PTR [rax+rax*1+0x0]
  4014f8:	00 00 00 00 
  4014fc:	0f 1f 40 00          	nop    DWORD PTR [rax+0x0]

0000000000401500 <register_tm_clones>:
  401500:	be 10 40 41 00       	mov    esi,0x414010
  401505:	48 81 ee 10 40 41 00 	sub    rsi,0x414010
  40150c:	48 89 f0             	mov    rax,rsi
  40150f:	48 c1 ee 3f          	shr    rsi,0x3f
  401513:	48 c1 f8 03          	sar    rax,0x3
  401517:	48 01 c6             	add    rsi,rax
  40151a:	48 d1 fe             	sar    rsi,1
  40151d:	74 11                	je     401530 <register_tm_clones+0x30>
  40151f:	b8 00 00 00 00       	mov    eax,0x0
  401524:	48 85 c0             	test   rax,rax
  401527:	74 07                	je     401530 <register_tm_clones+0x30>
  401529:	bf 10 40 41 00       	mov    edi,0x414010
  40152e:	ff e0                	jmp    rax
  401530:	c3                   	ret
  401531:	66 66 2e 0f 1f 84 00 	data16 cs nop WORD PTR [rax+rax*1+0x0]
  401538:	00 00 00 00 
  40153c:	0f 1f 40 00          	nop    DWORD PTR [rax+0x0]

0000000000401540 <__do_global_dtors_aux>:
  401540:	f3 0f 1e fa          	endbr64
  401544:	80 3d fd 2a 01 00 00 	cmp    BYTE PTR [rip+0x12afd],0x0        # 414048 <completed.8061>
  40154b:	75 13                	jne    401560 <__do_global_dtors_aux+0x20>
  40154d:	55                   	push   rbp
  40154e:	48 89 e5             	mov    rbp,rsp
  401551:	e8 7a ff ff ff       	call   4014d0 <deregister_tm_clones>
  401556:	c6 05 eb 2a 01 00 01 	mov    BYTE PTR [rip+0x12aeb],0x1        # 414048 <completed.8061>
  40155d:	5d                   	pop    rbp
  40155e:	c3                   	ret
  40155f:	90                   	nop
  401560:	c3                   	ret
  401561:	66 66 2e 0f 1f 84 00 	data16 cs nop WORD PTR [rax+rax*1+0x0]
  401568:	00 00 00 00 
  40156c:	0f 1f 40 00          	nop    DWORD PTR [rax+0x0]

0000000000401570 <frame_dummy>:
  401570:	f3 0f 1e fa          	endbr64
  401574:	eb 8a                	jmp    401500 <register_tm_clones>

0000000000401576 <win>:
  401576:	f3 0f 1e fa          	endbr64
  40157a:	55                   	push   rbp
  40157b:	31 f6                	xor    esi,esi
  40157d:	31 c0                	xor    eax,eax
  40157f:	48 8d 3d 7e 0a 01 00 	lea    rdi,[rip+0x10a7e]        # 412004 <_IO_stdin_used+0x4>
  401586:	48 81 ec 00 01 00 00 	sub    rsp,0x100
  40158d:	e8 be fc ff ff       	call   401250 <open@plt>
  401592:	85 c0                	test   eax,eax
  401594:	79 4b                	jns    4015e1 <win+0x6b>
  401596:	e8 e5 fb ff ff       	call   401180 <__errno_location@plt>
  40159b:	8b 38                	mov    edi,DWORD PTR [rax]
  40159d:	e8 de fc ff ff       	call   401280 <strerror@plt>
  4015a2:	48 8d 35 61 0a 01 00 	lea    rsi,[rip+0x10a61]        # 41200a <_IO_stdin_used+0xa>
  4015a9:	bf 01 00 00 00       	mov    edi,0x1
  4015ae:	48 89 c2             	mov    rdx,rax
  4015b1:	31 c0                	xor    eax,eax
  4015b3:	e8 78 fc ff ff       	call   401230 <__printf_chk@plt>
  4015b8:	e8 23 fc ff ff       	call   4011e0 <geteuid@plt>
  4015bd:	85 c0                	test   eax,eax
  4015bf:	74 18                	je     4015d9 <win+0x63>
  4015c1:	48 8d 3d 6c 0a 01 00 	lea    rdi,[rip+0x10a6c]        # 412034 <_IO_stdin_used+0x34>
  4015c8:	e8 c3 fb ff ff       	call   401190 <puts@plt>
  4015cd:	48 8d 3d 83 0a 01 00 	lea    rdi,[rip+0x10a83]        # 412057 <_IO_stdin_used+0x57>
  4015d4:	e8 b7 fb ff ff       	call   401190 <puts@plt>
  4015d9:	83 cf ff             	or     edi,0xffffffff
  4015dc:	e8 7f fc ff ff       	call   401260 <exit@plt>
  4015e1:	48 89 e5             	mov    rbp,rsp
  4015e4:	89 c7                	mov    edi,eax
  4015e6:	ba 00 01 00 00       	mov    edx,0x100
  4015eb:	48 89 ee             	mov    rsi,rbp
  4015ee:	e8 0d fc ff ff       	call   401200 <read@plt>
  4015f3:	85 c0                	test   eax,eax
  4015f5:	7f 2a                	jg     401621 <win+0xab>
  4015f7:	e8 84 fb ff ff       	call   401180 <__errno_location@plt>
  4015fc:	8b 38                	mov    edi,DWORD PTR [rax]
  4015fe:	e8 7d fc ff ff       	call   401280 <strerror@plt>
  401603:	bf 01 00 00 00       	mov    edi,0x1
  401608:	48 8d 35 9a 0a 01 00 	lea    rsi,[rip+0x10a9a]        # 4120a9 <_IO_stdin_used+0xa9>
  40160f:	48 89 c2             	mov    rdx,rax
  401612:	31 c0                	xor    eax,eax
  401614:	e8 17 fc ff ff       	call   401230 <__printf_chk@plt>
  401619:	83 cf ff             	or     edi,0xffffffff
  40161c:	e8 3f fc ff ff       	call   401260 <exit@plt>
  401621:	48 63 d0             	movsxd rdx,eax
  401624:	48 89 ee             	mov    rsi,rbp
  401627:	bf 01 00 00 00       	mov    edi,0x1
  40162c:	e8 6f fb ff ff       	call   4011a0 <write@plt>
  401631:	48 8d 3d 1c 0b 01 00 	lea    rdi,[rip+0x10b1c]        # 412154 <_IO_stdin_used+0x154>
  401638:	e8 53 fb ff ff       	call   401190 <puts@plt>
  40163d:	48 8d 3d c0 09 01 00 	lea    rdi,[rip+0x109c0]        # 412004 <_IO_stdin_used+0x4>
  401644:	31 f6                	xor    esi,esi
  401646:	31 c0                	xor    eax,eax
  401648:	e8 03 fc ff ff       	call   401250 <open@plt>
  40164d:	89 c7                	mov    edi,eax
  40164f:	85 c0                	test   eax,eax
  401651:	79 34                	jns    401687 <win+0x111>
  401653:	e8 28 fb ff ff       	call   401180 <__errno_location@plt>
  401658:	8b 38                	mov    edi,DWORD PTR [rax]
  40165a:	e8 21 fc ff ff       	call   401280 <strerror@plt>
  40165f:	48 8d 35 a4 09 01 00 	lea    rsi,[rip+0x109a4]        # 41200a <_IO_stdin_used+0xa>
  401666:	bf 01 00 00 00       	mov    edi,0x1
  40166b:	48 89 c2             	mov    rdx,rax
  40166e:	31 c0                	xor    eax,eax
  401670:	e8 bb fb ff ff       	call   401230 <__printf_chk@plt>
  401675:	e8 66 fb ff ff       	call   4011e0 <geteuid@plt>
  40167a:	85 c0                	test   eax,eax
  40167c:	0f 84 57 ff ff ff    	je     4015d9 <win+0x63>
  401682:	e9 3a ff ff ff       	jmp    4015c1 <win+0x4b>
  401687:	ba 00 01 00 00       	mov    edx,0x100
  40168c:	48 89 ee             	mov    rsi,rbp
  40168f:	e8 6c fb ff ff       	call   401200 <read@plt>
  401694:	85 c0                	test   eax,eax
  401696:	7f 2a                	jg     4016c2 <win+0x14c>
  401698:	e8 e3 fa ff ff       	call   401180 <__errno_location@plt>
  40169d:	8b 38                	mov    edi,DWORD PTR [rax]
  40169f:	e8 dc fb ff ff       	call   401280 <strerror@plt>
  4016a4:	bf 01 00 00 00       	mov    edi,0x1
  4016a9:	48 8d 35 f9 09 01 00 	lea    rsi,[rip+0x109f9]        # 4120a9 <_IO_stdin_used+0xa9>
  4016b0:	48 89 c2             	mov    rdx,rax
  4016b3:	31 c0                	xor    eax,eax
  4016b5:	e8 76 fb ff ff       	call   401230 <__printf_chk@plt>
  4016ba:	83 cf ff             	or     edi,0xffffffff
  4016bd:	e8 9e fb ff ff       	call   401260 <exit@plt>
  4016c2:	48 63 d0             	movsxd rdx,eax
  4016c5:	48 89 ee             	mov    rsi,rbp
  4016c8:	bf 01 00 00 00       	mov    edi,0x1
  4016cd:	e8 ce fa ff ff       	call   4011a0 <write@plt>
  4016d2:	48 8d 3d 7b 0a 01 00 	lea    rdi,[rip+0x10a7b]        # 412154 <_IO_stdin_used+0x154>
  4016d9:	e8 b2 fa ff ff       	call   401190 <puts@plt>
  4016de:	48 8d 3d 1f 09 01 00 	lea    rdi,[rip+0x1091f]        # 412004 <_IO_stdin_used+0x4>
  4016e5:	31 f6                	xor    esi,esi
  4016e7:	31 c0                	xor    eax,eax
  4016e9:	e8 62 fb ff ff       	call   401250 <open@plt>
  4016ee:	89 c7                	mov    edi,eax
  4016f0:	85 c0                	test   eax,eax
  4016f2:	79 34                	jns    401728 <win+0x1b2>
  4016f4:	e8 87 fa ff ff       	call   401180 <__errno_location@plt>
  4016f9:	8b 38                	mov    edi,DWORD PTR [rax]
  4016fb:	e8 80 fb ff ff       	call   401280 <strerror@plt>
  401700:	48 8d 35 03 09 01 00 	lea    rsi,[rip+0x10903]        # 41200a <_IO_stdin_used+0xa>
  401707:	bf 01 00 00 00       	mov    edi,0x1
  40170c:	48 89 c2             	mov    rdx,rax
  40170f:	31 c0                	xor    eax,eax
  401711:	e8 1a fb ff ff       	call   401230 <__printf_chk@plt>
  401716:	e8 c5 fa ff ff       	call   4011e0 <geteuid@plt>
  40171b:	85 c0                	test   eax,eax
  40171d:	0f 84 b6 fe ff ff    	je     4015d9 <win+0x63>
  401723:	e9 99 fe ff ff       	jmp    4015c1 <win+0x4b>
  401728:	ba 00 01 00 00       	mov    edx,0x100
  40172d:	48 89 ee             	mov    rsi,rbp
  401730:	e8 cb fa ff ff       	call   401200 <read@plt>
  401735:	85 c0                	test   eax,eax
  401737:	7f 2a                	jg     401763 <win+0x1ed>
  401739:	e8 42 fa ff ff       	call   401180 <__errno_location@plt>
  40173e:	8b 38                	mov    edi,DWORD PTR [rax]
  401740:	e8 3b fb ff ff       	call   401280 <strerror@plt>
  401745:	bf 01 00 00 00       	mov    edi,0x1
  40174a:	48 8d 35 58 09 01 00 	lea    rsi,[rip+0x10958]        # 4120a9 <_IO_stdin_used+0xa9>
  401751:	48 89 c2             	mov    rdx,rax
  401754:	31 c0                	xor    eax,eax
  401756:	e8 d5 fa ff ff       	call   401230 <__printf_chk@plt>
  40175b:	83 cf ff             	or     edi,0xffffffff
  40175e:	e8 fd fa ff ff       	call   401260 <exit@plt>
  401763:	48 63 d0             	movsxd rdx,eax
  401766:	48 89 ee             	mov    rsi,rbp
  401769:	bf 01 00 00 00       	mov    edi,0x1
  40176e:	e8 2d fa ff ff       	call   4011a0 <write@plt>
  401773:	48 8d 3d da 09 01 00 	lea    rdi,[rip+0x109da]        # 412154 <_IO_stdin_used+0x154>
  40177a:	e8 11 fa ff ff       	call   401190 <puts@plt>
  40177f:	48 8d 3d 7e 08 01 00 	lea    rdi,[rip+0x1087e]        # 412004 <_IO_stdin_used+0x4>
  401786:	31 f6                	xor    esi,esi
  401788:	31 c0                	xor    eax,eax
  40178a:	e8 c1 fa ff ff       	call   401250 <open@plt>
  40178f:	89 c7                	mov    edi,eax
  401791:	85 c0                	test   eax,eax
  401793:	79 34                	jns    4017c9 <win+0x253>
  401795:	e8 e6 f9 ff ff       	call   401180 <__errno_location@plt>
  40179a:	8b 38                	mov    edi,DWORD PTR [rax]
  40179c:	e8 df fa ff ff       	call   401280 <strerror@plt>
  4017a1:	48 8d 35 62 08 01 00 	lea    rsi,[rip+0x10862]        # 41200a <_IO_stdin_used+0xa>
  4017a8:	bf 01 00 00 00       	mov    edi,0x1
  4017ad:	48 89 c2             	mov    rdx,rax
  4017b0:	31 c0                	xor    eax,eax
  4017b2:	e8 79 fa ff ff       	call   401230 <__printf_chk@plt>
  4017b7:	e8 24 fa ff ff       	call   4011e0 <geteuid@plt>
  4017bc:	85 c0                	test   eax,eax
  4017be:	0f 84 15 fe ff ff    	je     4015d9 <win+0x63>
  4017c4:	e9 f8 fd ff ff       	jmp    4015c1 <win+0x4b>
  4017c9:	ba 00 01 00 00       	mov    edx,0x100
  4017ce:	48 89 ee             	mov    rsi,rbp
  4017d1:	e8 2a fa ff ff       	call   401200 <read@plt>
  4017d6:	85 c0                	test   eax,eax
  4017d8:	7f 2a                	jg     401804 <win+0x28e>
  4017da:	e8 a1 f9 ff ff       	call   401180 <__errno_location@plt>
  4017df:	8b 38                	mov    edi,DWORD PTR [rax]
  4017e1:	e8 9a fa ff ff       	call   401280 <strerror@plt>
  4017e6:	bf 01 00 00 00       	mov    edi,0x1
  4017eb:	48 8d 35 b7 08 01 00 	lea    rsi,[rip+0x108b7]        # 4120a9 <_IO_stdin_used+0xa9>
  4017f2:	48 89 c2             	mov    rdx,rax
  4017f5:	31 c0                	xor    eax,eax
  4017f7:	e8 34 fa ff ff       	call   401230 <__printf_chk@plt>
  4017fc:	83 cf ff             	or     edi,0xffffffff
  4017ff:	e8 5c fa ff ff       	call   401260 <exit@plt>
  401804:	48 63 d0             	movsxd rdx,eax
  401807:	48 89 ee             	mov    rsi,rbp
  40180a:	bf 01 00 00 00       	mov    edi,0x1
  40180f:	e8 8c f9 ff ff       	call   4011a0 <write@plt>
  401814:	48 8d 3d 39 09 01 00 	lea    rdi,[rip+0x10939]        # 412154 <_IO_stdin_used+0x154>
  40181b:	e8 70 f9 ff ff       	call   401190 <puts@plt>
  401820:	48 8d 3d dd 07 01 00 	lea    rdi,[rip+0x107dd]        # 412004 <_IO_stdin_used+0x4>
  401827:	31 f6                	xor    esi,esi
  401829:	31 c0                	xor    eax,eax
  40182b:	e8 20 fa ff ff       	call   401250 <open@plt>
  401830:	89 c7                	mov    edi,eax
  401832:	85 c0                	test   eax,eax
  401834:	79 34                	jns    40186a <win+0x2f4>
  401836:	e8 45 f9 ff ff       	call   401180 <__errno_location@plt>
  40183b:	8b 38                	mov    edi,DWORD PTR [rax]
  40183d:	e8 3e fa ff ff       	call   401280 <strerror@plt>
  401842:	48 8d 35 c1 07 01 00 	lea    rsi,[rip+0x107c1]        # 41200a <_IO_stdin_used+0xa>
  401849:	bf 01 00 00 00       	mov    edi,0x1
  40184e:	48 89 c2             	mov    rdx,rax
  401851:	31 c0                	xor    eax,eax
  401853:	e8 d8 f9 ff ff       	call   401230 <__printf_chk@plt>
  401858:	e8 83 f9 ff ff       	call   4011e0 <geteuid@plt>
  40185d:	85 c0                	test   eax,eax
  40185f:	0f 84 74 fd ff ff    	je     4015d9 <win+0x63>
  401865:	e9 57 fd ff ff       	jmp    4015c1 <win+0x4b>
  40186a:	ba 00 01 00 00       	mov    edx,0x100
  40186f:	48 89 ee             	mov    rsi,rbp
  401872:	e8 89 f9 ff ff       	call   401200 <read@plt>
  401877:	85 c0                	test   eax,eax
  401879:	7f 2a                	jg     4018a5 <win+0x32f>
  40187b:	e8 00 f9 ff ff       	call   401180 <__errno_location@plt>
  401880:	8b 38                	mov    edi,DWORD PTR [rax]
  401882:	e8 f9 f9 ff ff       	call   401280 <strerror@plt>
  401887:	bf 01 00 00 00       	mov    edi,0x1
  40188c:	48 8d 35 16 08 01 00 	lea    rsi,[rip+0x10816]        # 4120a9 <_IO_stdin_used+0xa9>
  401893:	48 89 c2             	mov    rdx,rax
  401896:	31 c0                	xor    eax,eax
  401898:	e8 93 f9 ff ff       	call   401230 <__printf_chk@plt>
  40189d:	83 cf ff             	or     edi,0xffffffff
  4018a0:	e8 bb f9 ff ff       	call   401260 <exit@plt>
  4018a5:	48 63 d0             	movsxd rdx,eax
  4018a8:	48 89 ee             	mov    rsi,rbp
  4018ab:	bf 01 00 00 00       	mov    edi,0x1
  4018b0:	e8 eb f8 ff ff       	call   4011a0 <write@plt>
  4018b5:	48 8d 3d 98 08 01 00 	lea    rdi,[rip+0x10898]        # 412154 <_IO_stdin_used+0x154>
  4018bc:	e8 cf f8 ff ff       	call   401190 <puts@plt>
  4018c1:	48 8d 3d 3c 07 01 00 	lea    rdi,[rip+0x1073c]        # 412004 <_IO_stdin_used+0x4>
  4018c8:	31 f6                	xor    esi,esi
  4018ca:	31 c0                	xor    eax,eax
  4018cc:	e8 7f f9 ff ff       	call   401250 <open@plt>
  4018d1:	89 c7                	mov    edi,eax
  4018d3:	85 c0                	test   eax,eax
  4018d5:	79 34                	jns    40190b <win+0x395>
  4018d7:	e8 a4 f8 ff ff       	call   401180 <__errno_location@plt>
  4018dc:	8b 38                	mov    edi,DWORD PTR [rax]
  4018de:	e8 9d f9 ff ff       	call   401280 <strerror@plt>
  4018e3:	48 8d 35 20 07 01 00 	lea    rsi,[rip+0x10720]        # 41200a <_IO_stdin_used+0xa>
  4018ea:	bf 01 00 00 00       	mov    edi,0x1
  4018ef:	48 89 c2             	mov    rdx,rax
  4018f2:	31 c0                	xor    eax,eax
  4018f4:	e8 37 f9 ff ff       	call   401230 <__printf_chk@plt>
  4018f9:	e8 e2 f8 ff ff       	call   4011e0 <geteuid@plt>
  4018fe:	85 c0                	test   eax,eax
  401900:	0f 84 d3 fc ff ff    	je     4015d9 <win+0x63>
  401906:	e9 b6 fc ff ff       	jmp    4015c1 <win+0x4b>
  40190b:	ba 00 01 00 00       	mov    edx,0x100
  401910:	48 89 ee             	mov    rsi,rbp
  401913:	e8 e8 f8 ff ff       	call   401200 <read@plt>
  401918:	85 c0                	test   eax,eax
  40191a:	7f 2a                	jg     401946 <win+0x3d0>
  40191c:	e8 5f f8 ff ff       	call   401180 <__errno_location@plt>
  401921:	8b 38                	mov    edi,DWORD PTR [rax]
  401923:	e8 58 f9 ff ff       	call   401280 <strerror@plt>
  401928:	bf 01 00 00 00       	mov    edi,0x1
  40192d:	48 8d 35 75 07 01 00 	lea    rsi,[rip+0x10775]        # 4120a9 <_IO_stdin_used+0xa9>
  401934:	48 89 c2             	mov    rdx,rax
  401937:	31 c0                	xor    eax,eax
  401939:	e8 f2 f8 ff ff       	call   401230 <__printf_chk@plt>
  40193e:	83 cf ff             	or     edi,0xffffffff
  401941:	e8 1a f9 ff ff       	call   401260 <exit@plt>
  401946:	48 63 d0             	movsxd rdx,eax
  401949:	48 89 ee             	mov    rsi,rbp
  40194c:	bf 01 00 00 00       	mov    edi,0x1
  401951:	e8 4a f8 ff ff       	call   4011a0 <write@plt>
  401956:	48 8d 3d f7 07 01 00 	lea    rdi,[rip+0x107f7]        # 412154 <_IO_stdin_used+0x154>
  40195d:	e8 2e f8 ff ff       	call   401190 <puts@plt>
  401962:	48 8d 3d 9b 06 01 00 	lea    rdi,[rip+0x1069b]        # 412004 <_IO_stdin_used+0x4>
  401969:	31 f6                	xor    esi,esi
  40196b:	31 c0                	xor    eax,eax
  40196d:	e8 de f8 ff ff       	call   401250 <open@plt>
  401972:	89 c7                	mov    edi,eax
  401974:	85 c0                	test   eax,eax
  401976:	79 34                	jns    4019ac <win+0x436>
  401978:	e8 03 f8 ff ff       	call   401180 <__errno_location@plt>
  40197d:	8b 38                	mov    edi,DWORD PTR [rax]
  40197f:	e8 fc f8 ff ff       	call   401280 <strerror@plt>
  401984:	48 8d 35 7f 06 01 00 	lea    rsi,[rip+0x1067f]        # 41200a <_IO_stdin_used+0xa>
  40198b:	bf 01 00 00 00       	mov    edi,0x1
  401990:	48 89 c2             	mov    rdx,rax
  401993:	31 c0                	xor    eax,eax
  401995:	e8 96 f8 ff ff       	call   401230 <__printf_chk@plt>
  40199a:	e8 41 f8 ff ff       	call   4011e0 <geteuid@plt>
  40199f:	85 c0                	test   eax,eax
  4019a1:	0f 84 32 fc ff ff    	je     4015d9 <win+0x63>
  4019a7:	e9 15 fc ff ff       	jmp    4015c1 <win+0x4b>
  4019ac:	ba 00 01 00 00       	mov    edx,0x100
  4019b1:	48 89 ee             	mov    rsi,rbp
  4019b4:	e8 47 f8 ff ff       	call   401200 <read@plt>
  4019b9:	85 c0                	test   eax,eax
  4019bb:	7f 2a                	jg     4019e7 <win+0x471>
  4019bd:	e8 be f7 ff ff       	call   401180 <__errno_location@plt>
  4019c2:	8b 38                	mov    edi,DWORD PTR [rax]
  4019c4:	e8 b7 f8 ff ff       	call   401280 <strerror@plt>
  4019c9:	bf 01 00 00 00       	mov    edi,0x1
  4019ce:	48 8d 35 d4 06 01 00 	lea    rsi,[rip+0x106d4]        # 4120a9 <_IO_stdin_used+0xa9>
  4019d5:	48 89 c2             	mov    rdx,rax
  4019d8:	31 c0                	xor    eax,eax
  4019da:	e8 51 f8 ff ff       	call   401230 <__printf_chk@plt>
  4019df:	83 cf ff             	or     edi,0xffffffff
  4019e2:	e8 79 f8 ff ff       	call   401260 <exit@plt>
  4019e7:	48 63 d0             	movsxd rdx,eax
  4019ea:	48 89 ee             	mov    rsi,rbp
  4019ed:	bf 01 00 00 00       	mov    edi,0x1
  4019f2:	e8 a9 f7 ff ff       	call   4011a0 <write@plt>
  4019f7:	48 8d 3d 56 07 01 00 	lea    rdi,[rip+0x10756]        # 412154 <_IO_stdin_used+0x154>
  4019fe:	e8 8d f7 ff ff       	call   401190 <puts@plt>
  401a03:	48 8d 3d fa 05 01 00 	lea    rdi,[rip+0x105fa]        # 412004 <_IO_stdin_used+0x4>
  401a0a:	31 f6                	xor    esi,esi
  401a0c:	31 c0                	xor    eax,eax
  401a0e:	e8 3d f8 ff ff       	call   401250 <open@plt>
  401a13:	89 c7                	mov    edi,eax
  401a15:	85 c0                	test   eax,eax
  401a17:	79 34                	jns    401a4d <win+0x4d7>
  401a19:	e8 62 f7 ff ff       	call   401180 <__errno_location@plt>
  401a1e:	8b 38                	mov    edi,DWORD PTR [rax]
  401a20:	e8 5b f8 ff ff       	call   401280 <strerror@plt>
  401a25:	48 8d 35 de 05 01 00 	lea    rsi,[rip+0x105de]        # 41200a <_IO_stdin_used+0xa>
  401a2c:	bf 01 00 00 00       	mov    edi,0x1
  401a31:	48 89 c2             	mov    rdx,rax
  401a34:	31 c0                	xor    eax,eax
  401a36:	e8 f5 f7 ff ff       	call   401230 <__printf_chk@plt>
  401a3b:	e8 a0 f7 ff ff       	call   4011e0 <geteuid@plt>
  401a40:	85 c0                	test   eax,eax
  401a42:	0f 84 91 fb ff ff    	je     4015d9 <win+0x63>
  401a48:	e9 74 fb ff ff       	jmp    4015c1 <win+0x4b>
  401a4d:	ba 00 01 00 00       	mov    edx,0x100
  401a52:	48 89 ee             	mov    rsi,rbp
  401a55:	e8 a6 f7 ff ff       	call   401200 <read@plt>
  401a5a:	85 c0                	test   eax,eax
  401a5c:	7f 2a                	jg     401a88 <win+0x512>
  401a5e:	e8 1d f7 ff ff       	call   401180 <__errno_location@plt>
  401a63:	8b 38                	mov    edi,DWORD PTR [rax]
  401a65:	e8 16 f8 ff ff       	call   401280 <strerror@plt>
  401a6a:	bf 01 00 00 00       	mov    edi,0x1
  401a6f:	48 8d 35 33 06 01 00 	lea    rsi,[rip+0x10633]        # 4120a9 <_IO_stdin_used+0xa9>
  401a76:	48 89 c2             	mov    rdx,rax
  401a79:	31 c0                	xor    eax,eax
  401a7b:	e8 b0 f7 ff ff       	call   401230 <__printf_chk@plt>
  401a80:	83 cf ff             	or     edi,0xffffffff
  401a83:	e8 d8 f7 ff ff       	call   401260 <exit@plt>
  401a88:	48 63 d0             	movsxd rdx,eax
  401a8b:	48 89 ee             	mov    rsi,rbp
  401a8e:	bf 01 00 00 00       	mov    edi,0x1
  401a93:	e8 08 f7 ff ff       	call   4011a0 <write@plt>
  401a98:	48 8d 3d b5 06 01 00 	lea    rdi,[rip+0x106b5]        # 412154 <_IO_stdin_used+0x154>
  401a9f:	e8 ec f6 ff ff       	call   401190 <puts@plt>
  401aa4:	48 8d 3d 59 05 01 00 	lea    rdi,[rip+0x10559]        # 412004 <_IO_stdin_used+0x4>
  401aab:	31 f6                	xor    esi,esi
  401aad:	31 c0                	xor    eax,eax
  401aaf:	e8 9c f7 ff ff       	call   401250 <open@plt>
  401ab4:	89 c7                	mov    edi,eax
  401ab6:	85 c0                	test   eax,eax
  401ab8:	79 34                	jns    401aee <win+0x578>
  401aba:	e8 c1 f6 ff ff       	call   401180 <__errno_location@plt>
  401abf:	8b 38                	mov    edi,DWORD PTR [rax]
  401ac1:	e8 ba f7 ff ff       	call   401280 <strerror@plt>
  401ac6:	48 8d 35 3d 05 01 00 	lea    rsi,[rip+0x1053d]        # 41200a <_IO_stdin_used+0xa>
  401acd:	bf 01 00 00 00       	mov    edi,0x1
  401ad2:	48 89 c2             	mov    rdx,rax
  401ad5:	31 c0                	xor    eax,eax
  401ad7:	e8 54 f7 ff ff       	call   401230 <__printf_chk@plt>
  401adc:	e8 ff f6 ff ff       	call   4011e0 <geteuid@plt>
  401ae1:	85 c0                	test   eax,eax
  401ae3:	0f 84 f0 fa ff ff    	je     4015d9 <win+0x63>
  401ae9:	e9 d3 fa ff ff       	jmp    4015c1 <win+0x4b>
  401aee:	ba 00 01 00 00       	mov    edx,0x100
  401af3:	48 89 ee             	mov    rsi,rbp
  401af6:	e8 05 f7 ff ff       	call   401200 <read@plt>
  401afb:	85 c0                	test   eax,eax
  401afd:	7f 2a                	jg     401b29 <win+0x5b3>
  401aff:	e8 7c f6 ff ff       	call   401180 <__errno_location@plt>
  401b04:	8b 38                	mov    edi,DWORD PTR [rax]
  401b06:	e8 75 f7 ff ff       	call   401280 <strerror@plt>
  401b0b:	bf 01 00 00 00       	mov    edi,0x1
  401b10:	48 8d 35 92 05 01 00 	lea    rsi,[rip+0x10592]        # 4120a9 <_IO_stdin_used+0xa9>
  401b17:	48 89 c2             	mov    rdx,rax
  401b1a:	31 c0                	xor    eax,eax
  401b1c:	e8 0f f7 ff ff       	call   401230 <__printf_chk@plt>
  401b21:	83 cf ff             	or     edi,0xffffffff
  401b24:	e8 37 f7 ff ff       	call   401260 <exit@plt>
  401b29:	48 63 d0             	movsxd rdx,eax
  401b2c:	48 89 ee             	mov    rsi,rbp
  401b2f:	bf 01 00 00 00       	mov    edi,0x1
  401b34:	e8 67 f6 ff ff       	call   4011a0 <write@plt>
  401b39:	48 8d 3d 14 06 01 00 	lea    rdi,[rip+0x10614]        # 412154 <_IO_stdin_used+0x154>
  401b40:	e8 4b f6 ff ff       	call   401190 <puts@plt>
  401b45:	48 8d 3d b8 04 01 00 	lea    rdi,[rip+0x104b8]        # 412004 <_IO_stdin_used+0x4>
  401b4c:	31 f6                	xor    esi,esi
  401b4e:	31 c0                	xor    eax,eax
  401b50:	e8 fb f6 ff ff       	call   401250 <open@plt>
  401b55:	89 c7                	mov    edi,eax
  401b57:	85 c0                	test   eax,eax
  401b59:	79 34                	jns    401b8f <win+0x619>
  401b5b:	e8 20 f6 ff ff       	call   401180 <__errno_location@plt>
  401b60:	8b 38                	mov    edi,DWORD PTR [rax]
  401b62:	e8 19 f7 ff ff       	call   401280 <strerror@plt>
  401b67:	48 8d 35 9c 04 01 00 	lea    rsi,[rip+0x1049c]        # 41200a <_IO_stdin_used+0xa>
  401b6e:	bf 01 00 00 00       	mov    edi,0x1
  401b73:	48 89 c2             	mov    rdx,rax
  401b76:	31 c0                	xor    eax,eax
  401b78:	e8 b3 f6 ff ff       	call   401230 <__printf_chk@plt>
  401b7d:	e8 5e f6 ff ff       	call   4011e0 <geteuid@plt>
  401b82:	85 c0                	test   eax,eax
  401b84:	0f 84 4f fa ff ff    	je     4015d9 <win+0x63>
  401b8a:	e9 32 fa ff ff       	jmp    4015c1 <win+0x4b>
  401b8f:	ba 00 01 00 00       	mov    edx,0x100
  401b94:	48 89 ee             	mov    rsi,rbp
  401b97:	e8 64 f6 ff ff       	call   401200 <read@plt>
  401b9c:	85 c0                	test   eax,eax
  401b9e:	7f 2a                	jg     401bca <win+0x654>
  401ba0:	e8 db f5 ff ff       	call   401180 <__errno_location@plt>
  401ba5:	8b 38                	mov    edi,DWORD PTR [rax]
  401ba7:	e8 d4 f6 ff ff       	call   401280 <strerror@plt>
  401bac:	bf 01 00 00 00       	mov    edi,0x1
  401bb1:	48 8d 35 f1 04 01 00 	lea    rsi,[rip+0x104f1]        # 4120a9 <_IO_stdin_used+0xa9>
  401bb8:	48 89 c2             	mov    rdx,rax
  401bbb:	31 c0                	xor    eax,eax
  401bbd:	e8 6e f6 ff ff       	call   401230 <__printf_chk@plt>
  401bc2:	83 cf ff             	or     edi,0xffffffff
  401bc5:	e8 96 f6 ff ff       	call   401260 <exit@plt>
  401bca:	48 63 d0             	movsxd rdx,eax
  401bcd:	48 89 ee             	mov    rsi,rbp
  401bd0:	bf 01 00 00 00       	mov    edi,0x1
  401bd5:	e8 c6 f5 ff ff       	call   4011a0 <write@plt>
  401bda:	48 8d 3d 73 05 01 00 	lea    rdi,[rip+0x10573]        # 412154 <_IO_stdin_used+0x154>
  401be1:	e8 aa f5 ff ff       	call   401190 <puts@plt>
  401be6:	48 8d 3d 17 04 01 00 	lea    rdi,[rip+0x10417]        # 412004 <_IO_stdin_used+0x4>
  401bed:	31 f6                	xor    esi,esi
  401bef:	31 c0                	xor    eax,eax
  401bf1:	e8 5a f6 ff ff       	call   401250 <open@plt>
  401bf6:	89 c7                	mov    edi,eax
  401bf8:	85 c0                	test   eax,eax
  401bfa:	79 34                	jns    401c30 <win+0x6ba>
  401bfc:	e8 7f f5 ff ff       	call   401180 <__errno_location@plt>
  401c01:	8b 38                	mov    edi,DWORD PTR [rax]
  401c03:	e8 78 f6 ff ff       	call   401280 <strerror@plt>
  401c08:	48 8d 35 fb 03 01 00 	lea    rsi,[rip+0x103fb]        # 41200a <_IO_stdin_used+0xa>
  401c0f:	bf 01 00 00 00       	mov    edi,0x1
  401c14:	48 89 c2             	mov    rdx,rax
  401c17:	31 c0                	xor    eax,eax
  401c19:	e8 12 f6 ff ff       	call   401230 <__printf_chk@plt>
  401c1e:	e8 bd f5 ff ff       	call   4011e0 <geteuid@plt>
  401c23:	85 c0                	test   eax,eax
  401c25:	0f 84 ae f9 ff ff    	je     4015d9 <win+0x63>
  401c2b:	e9 91 f9 ff ff       	jmp    4015c1 <win+0x4b>
  401c30:	ba 00 01 00 00       	mov    edx,0x100
  401c35:	48 89 ee             	mov    rsi,rbp
  401c38:	e8 c3 f5 ff ff       	call   401200 <read@plt>
  401c3d:	85 c0                	test   eax,eax
  401c3f:	7f 2a                	jg     401c6b <win+0x6f5>
  401c41:	e8 3a f5 ff ff       	call   401180 <__errno_location@plt>
  401c46:	8b 38                	mov    edi,DWORD PTR [rax]
  401c48:	e8 33 f6 ff ff       	call   401280 <strerror@plt>
  401c4d:	bf 01 00 00 00       	mov    edi,0x1
  401c52:	48 8d 35 50 04 01 00 	lea    rsi,[rip+0x10450]        # 4120a9 <_IO_stdin_used+0xa9>
  401c59:	48 89 c2             	mov    rdx,rax
  401c5c:	31 c0                	xor    eax,eax
  401c5e:	e8 cd f5 ff ff       	call   401230 <__printf_chk@plt>
  401c63:	83 cf ff             	or     edi,0xffffffff
  401c66:	e8 f5 f5 ff ff       	call   401260 <exit@plt>
  401c6b:	48 63 d0             	movsxd rdx,eax
  401c6e:	48 89 ee             	mov    rsi,rbp
  401c71:	bf 01 00 00 00       	mov    edi,0x1
  401c76:	e8 25 f5 ff ff       	call   4011a0 <write@plt>
  401c7b:	48 8d 3d d2 04 01 00 	lea    rdi,[rip+0x104d2]        # 412154 <_IO_stdin_used+0x154>
  401c82:	e8 09 f5 ff ff       	call   401190 <puts@plt>
  401c87:	48 8d 3d 76 03 01 00 	lea    rdi,[rip+0x10376]        # 412004 <_IO_stdin_used+0x4>
  401c8e:	31 f6                	xor    esi,esi
  401c90:	31 c0                	xor    eax,eax
  401c92:	e8 b9 f5 ff ff       	call   401250 <open@plt>
  401c97:	89 c7                	mov    edi,eax
  401c99:	85 c0                	test   eax,eax
  401c9b:	79 34                	jns    401cd1 <win+0x75b>
  401c9d:	e8 de f4 ff ff       	call   401180 <__errno_location@plt>
  401ca2:	8b 38                	mov    edi,DWORD PTR [rax]
  401ca4:	e8 d7 f5 ff ff       	call   401280 <strerror@plt>
  401ca9:	48 8d 35 5a 03 01 00 	lea    rsi,[rip+0x1035a]        # 41200a <_IO_stdin_used+0xa>
  401cb0:	bf 01 00 00 00       	mov    edi,0x1
  401cb5:	48 89 c2             	mov    rdx,rax
  401cb8:	31 c0                	xor    eax,eax
  401cba:	e8 71 f5 ff ff       	call   401230 <__printf_chk@plt>
  401cbf:	e8 1c f5 ff ff       	call   4011e0 <geteuid@plt>
  401cc4:	85 c0                	test   eax,eax
  401cc6:	0f 84 0d f9 ff ff    	je     4015d9 <win+0x63>
  401ccc:	e9 f0 f8 ff ff       	jmp    4015c1 <win+0x4b>
  401cd1:	ba 00 01 00 00       	mov    edx,0x100
  401cd6:	48 89 ee             	mov    rsi,rbp
  401cd9:	e8 22 f5 ff ff       	call   401200 <read@plt>
  401cde:	85 c0                	test   eax,eax
  401ce0:	7f 2a                	jg     401d0c <win+0x796>
  401ce2:	e8 99 f4 ff ff       	call   401180 <__errno_location@plt>
  401ce7:	8b 38                	mov    edi,DWORD PTR [rax]
  401ce9:	e8 92 f5 ff ff       	call   401280 <strerror@plt>
  401cee:	bf 01 00 00 00       	mov    edi,0x1
  401cf3:	48 8d 35 af 03 01 00 	lea    rsi,[rip+0x103af]        # 4120a9 <_IO_stdin_used+0xa9>
  401cfa:	48 89 c2             	mov    rdx,rax
  401cfd:	31 c0                	xor    eax,eax
  401cff:	e8 2c f5 ff ff       	call   401230 <__printf_chk@plt>
  401d04:	83 cf ff             	or     edi,0xffffffff
  401d07:	e8 54 f5 ff ff       	call   401260 <exit@plt>
  401d0c:	48 63 d0             	movsxd rdx,eax
  401d0f:	48 89 ee             	mov    rsi,rbp
  401d12:	bf 01 00 00 00       	mov    edi,0x1
  401d17:	e8 84 f4 ff ff       	call   4011a0 <write@plt>
  401d1c:	48 8d 3d 31 04 01 00 	lea    rdi,[rip+0x10431]        # 412154 <_IO_stdin_used+0x154>
  401d23:	e8 68 f4 ff ff       	call   401190 <puts@plt>
  401d28:	48 8d 3d d5 02 01 00 	lea    rdi,[rip+0x102d5]        # 412004 <_IO_stdin_used+0x4>
  401d2f:	31 f6                	xor    esi,esi
  401d31:	31 c0                	xor    eax,eax
  401d33:	e8 18 f5 ff ff       	call   401250 <open@plt>
  401d38:	89 c7                	mov    edi,eax
  401d3a:	85 c0                	test   eax,eax
  401d3c:	79 34                	jns    401d72 <win+0x7fc>
  401d3e:	e8 3d f4 ff ff       	call   401180 <__errno_location@plt>
  401d43:	8b 38                	mov    edi,DWORD PTR [rax]
  401d45:	e8 36 f5 ff ff       	call   401280 <strerror@plt>
  401d4a:	48 8d 35 b9 02 01 00 	lea    rsi,[rip+0x102b9]        # 41200a <_IO_stdin_used+0xa>
  401d51:	bf 01 00 00 00       	mov    edi,0x1
  401d56:	48 89 c2             	mov    rdx,rax
  401d59:	31 c0                	xor    eax,eax
  401d5b:	e8 d0 f4 ff ff       	call   401230 <__printf_chk@plt>
  401d60:	e8 7b f4 ff ff       	call   4011e0 <geteuid@plt>
  401d65:	85 c0                	test   eax,eax
  401d67:	0f 84 6c f8 ff ff    	je     4015d9 <win+0x63>
  401d6d:	e9 4f f8 ff ff       	jmp    4015c1 <win+0x4b>
  401d72:	ba 00 01 00 00       	mov    edx,0x100
  401d77:	48 89 ee             	mov    rsi,rbp
  401d7a:	e8 81 f4 ff ff       	call   401200 <read@plt>
  401d7f:	85 c0                	test   eax,eax
  401d81:	7f 2a                	jg     401dad <win+0x837>
  401d83:	e8 f8 f3 ff ff       	call   401180 <__errno_location@plt>
  401d88:	8b 38                	mov    edi,DWORD PTR [rax]
  401d8a:	e8 f1 f4 ff ff       	call   401280 <strerror@plt>
  401d8f:	bf 01 00 00 00       	mov    edi,0x1
  401d94:	48 8d 35 0e 03 01 00 	lea    rsi,[rip+0x1030e]        # 4120a9 <_IO_stdin_used+0xa9>
  401d9b:	48 89 c2             	mov    rdx,rax
  401d9e:	31 c0                	xor    eax,eax
  401da0:	e8 8b f4 ff ff       	call   401230 <__printf_chk@plt>
  401da5:	83 cf ff             	or     edi,0xffffffff
  401da8:	e8 b3 f4 ff ff       	call   401260 <exit@plt>
  401dad:	48 63 d0             	movsxd rdx,eax
  401db0:	48 89 ee             	mov    rsi,rbp
  401db3:	bf 01 00 00 00       	mov    edi,0x1
  401db8:	e8 e3 f3 ff ff       	call   4011a0 <write@plt>
  401dbd:	48 8d 3d 90 03 01 00 	lea    rdi,[rip+0x10390]        # 412154 <_IO_stdin_used+0x154>
  401dc4:	e8 c7 f3 ff ff       	call   401190 <puts@plt>
  401dc9:	48 8d 3d 34 02 01 00 	lea    rdi,[rip+0x10234]        # 412004 <_IO_stdin_used+0x4>
  401dd0:	31 f6                	xor    esi,esi
  401dd2:	31 c0                	xor    eax,eax
  401dd4:	e8 77 f4 ff ff       	call   401250 <open@plt>
  401dd9:	89 c7                	mov    edi,eax
  401ddb:	85 c0                	test   eax,eax
  401ddd:	79 34                	jns    401e13 <win+0x89d>
  401ddf:	e8 9c f3 ff ff       	call   401180 <__errno_location@plt>
  401de4:	8b 38                	mov    edi,DWORD PTR [rax]
  401de6:	e8 95 f4 ff ff       	call   401280 <strerror@plt>
  401deb:	48 8d 35 18 02 01 00 	lea    rsi,[rip+0x10218]        # 41200a <_IO_stdin_used+0xa>
  401df2:	bf 01 00 00 00       	mov    edi,0x1
  401df7:	48 89 c2             	mov    rdx,rax
  401dfa:	31 c0                	xor    eax,eax
  401dfc:	e8 2f f4 ff ff       	call   401230 <__printf_chk@plt>
  401e01:	e8 da f3 ff ff       	call   4011e0 <geteuid@plt>
  401e06:	85 c0                	test   eax,eax
  401e08:	0f 84 cb f7 ff ff    	je     4015d9 <win+0x63>
  401e0e:	e9 ae f7 ff ff       	jmp    4015c1 <win+0x4b>
  401e13:	ba 00 01 00 00       	mov    edx,0x100
  401e18:	48 89 ee             	mov    rsi,rbp
  401e1b:	e8 e0 f3 ff ff       	call   401200 <read@plt>
  401e20:	85 c0                	test   eax,eax
  401e22:	7f 2a                	jg     401e4e <win+0x8d8>
  401e24:	e8 57 f3 ff ff       	call   401180 <__errno_location@plt>
  401e29:	8b 38                	mov    edi,DWORD PTR [rax]
  401e2b:	e8 50 f4 ff ff       	call   401280 <strerror@plt>
  401e30:	bf 01 00 00 00       	mov    edi,0x1
  401e35:	48 8d 35 6d 02 01 00 	lea    rsi,[rip+0x1026d]        # 4120a9 <_IO_stdin_used+0xa9>
  401e3c:	48 89 c2             	mov    rdx,rax
  401e3f:	31 c0                	xor    eax,eax
  401e41:	e8 ea f3 ff ff       	call   401230 <__printf_chk@plt>
  401e46:	83 cf ff             	or     edi,0xffffffff
  401e49:	e8 12 f4 ff ff       	call   401260 <exit@plt>
  401e4e:	48 63 d0             	movsxd rdx,eax
  401e51:	48 89 ee             	mov    rsi,rbp
  401e54:	bf 01 00 00 00       	mov    edi,0x1
  401e59:	e8 42 f3 ff ff       	call   4011a0 <write@plt>
  401e5e:	48 8d 3d ef 02 01 00 	lea    rdi,[rip+0x102ef]        # 412154 <_IO_stdin_used+0x154>
  401e65:	e8 26 f3 ff ff       	call   401190 <puts@plt>
  401e6a:	48 8d 3d 93 01 01 00 	lea    rdi,[rip+0x10193]        # 412004 <_IO_stdin_used+0x4>
  401e71:	31 f6                	xor    esi,esi
  401e73:	31 c0                	xor    eax,eax
  401e75:	e8 d6 f3 ff ff       	call   401250 <open@plt>
  401e7a:	89 c7                	mov    edi,eax
  401e7c:	85 c0                	test   eax,eax
  401e7e:	79 34                	jns    401eb4 <win+0x93e>
  401e80:	e8 fb f2 ff ff       	call   401180 <__errno_location@plt>
  401e85:	8b 38                	mov    edi,DWORD PTR [rax]
  401e87:	e8 f4 f3 ff ff       	call   401280 <strerror@plt>
  401e8c:	48 8d 35 77 01 01 00 	lea    rsi,[rip+0x10177]        # 41200a <_IO_stdin_used+0xa>
  401e93:	bf 01 00 00 00       	mov    edi,0x1
  401e98:	48 89 c2             	mov    rdx,rax
  401e9b:	31 c0                	xor    eax,eax
  401e9d:	e8 8e f3 ff ff       	call   401230 <__printf_chk@plt>
  401ea2:	e8 39 f3 ff ff       	call   4011e0 <geteuid@plt>
  401ea7:	85 c0                	test   eax,eax
  401ea9:	0f 84 2a f7 ff ff    	je     4015d9 <win+0x63>
  401eaf:	e9 0d f7 ff ff       	jmp    4015c1 <win+0x4b>
  401eb4:	ba 00 01 00 00       	mov    edx,0x100
  401eb9:	48 89 ee             	mov    rsi,rbp
  401ebc:	e8 3f f3 ff ff       	call   401200 <read@plt>
  401ec1:	85 c0                	test   eax,eax
  401ec3:	7f 2a                	jg     401eef <win+0x979>
  401ec5:	e8 b6 f2 ff ff       	call   401180 <__errno_location@plt>
  401eca:	8b 38                	mov    edi,DWORD PTR [rax]
  401ecc:	e8 af f3 ff ff       	call   401280 <strerror@plt>
  401ed1:	bf 01 00 00 00       	mov    edi,0x1
  401ed6:	48 8d 35 cc 01 01 00 	lea    rsi,[rip+0x101cc]        # 4120a9 <_IO_stdin_used+0xa9>
  401edd:	48 89 c2             	mov    rdx,rax
  401ee0:	31 c0                	xor    eax,eax
  401ee2:	e8 49 f3 ff ff       	call   401230 <__printf_chk@plt>
  401ee7:	83 cf ff             	or     edi,0xffffffff
  401eea:	e8 71 f3 ff ff       	call   401260 <exit@plt>
  401eef:	48 63 d0             	movsxd rdx,eax
  401ef2:	48 89 ee             	mov    rsi,rbp
  401ef5:	bf 01 00 00 00       	mov    edi,0x1
  401efa:	e8 a1 f2 ff ff       	call   4011a0 <write@plt>
  401eff:	48 8d 3d 4e 02 01 00 	lea    rdi,[rip+0x1024e]        # 412154 <_IO_stdin_used+0x154>
  401f06:	e8 85 f2 ff ff       	call   401190 <puts@plt>
  401f0b:	48 8d 3d f2 00 01 00 	lea    rdi,[rip+0x100f2]        # 412004 <_IO_stdin_used+0x4>
  401f12:	31 f6                	xor    esi,esi
  401f14:	31 c0                	xor    eax,eax
  401f16:	e8 35 f3 ff ff       	call   401250 <open@plt>
  401f1b:	89 c7                	mov    edi,eax
  401f1d:	85 c0                	test   eax,eax
  401f1f:	79 34                	jns    401f55 <win+0x9df>
  401f21:	e8 5a f2 ff ff       	call   401180 <__errno_location@plt>
  401f26:	8b 38                	mov    edi,DWORD PTR [rax]
  401f28:	e8 53 f3 ff ff       	call   401280 <strerror@plt>
  401f2d:	48 8d 35 d6 00 01 00 	lea    rsi,[rip+0x100d6]        # 41200a <_IO_stdin_used+0xa>
  401f34:	bf 01 00 00 00       	mov    edi,0x1
  401f39:	48 89 c2             	mov    rdx,rax
  401f3c:	31 c0                	xor    eax,eax
  401f3e:	e8 ed f2 ff ff       	call   401230 <__printf_chk@plt>
  401f43:	e8 98 f2 ff ff       	call   4011e0 <geteuid@plt>
  401f48:	85 c0                	test   eax,eax
  401f4a:	0f 84 89 f6 ff ff    	je     4015d9 <win+0x63>
  401f50:	e9 6c f6 ff ff       	jmp    4015c1 <win+0x4b>
  401f55:	ba 00 01 00 00       	mov    edx,0x100
  401f5a:	48 89 ee             	mov    rsi,rbp
  401f5d:	e8 9e f2 ff ff       	call   401200 <read@plt>
  401f62:	85 c0                	test   eax,eax
  401f64:	7f 2a                	jg     401f90 <win+0xa1a>
  401f66:	e8 15 f2 ff ff       	call   401180 <__errno_location@plt>
  401f6b:	8b 38                	mov    edi,DWORD PTR [rax]
  401f6d:	e8 0e f3 ff ff       	call   401280 <strerror@plt>
  401f72:	bf 01 00 00 00       	mov    edi,0x1
  401f77:	48 8d 35 2b 01 01 00 	lea    rsi,[rip+0x1012b]        # 4120a9 <_IO_stdin_used+0xa9>
  401f7e:	48 89 c2             	mov    rdx,rax
  401f81:	31 c0                	xor    eax,eax
  401f83:	e8 a8 f2 ff ff       	call   401230 <__printf_chk@plt>
  401f88:	83 cf ff             	or     edi,0xffffffff
  401f8b:	e8 d0 f2 ff ff       	call   401260 <exit@plt>
  401f90:	48 63 d0             	movsxd rdx,eax
  401f93:	48 89 ee             	mov    rsi,rbp
  401f96:	bf 01 00 00 00       	mov    edi,0x1
  401f9b:	e8 00 f2 ff ff       	call   4011a0 <write@plt>
  401fa0:	48 8d 3d ad 01 01 00 	lea    rdi,[rip+0x101ad]        # 412154 <_IO_stdin_used+0x154>
  401fa7:	e8 e4 f1 ff ff       	call   401190 <puts@plt>
  401fac:	48 8d 3d 51 00 01 00 	lea    rdi,[rip+0x10051]        # 412004 <_IO_stdin_used+0x4>
  401fb3:	31 f6                	xor    esi,esi
  401fb5:	31 c0                	xor    eax,eax
  401fb7:	e8 94 f2 ff ff       	call   401250 <open@plt>
  401fbc:	89 c7                	mov    edi,eax
  401fbe:	85 c0                	test   eax,eax
  401fc0:	79 34                	jns    401ff6 <win+0xa80>
  401fc2:	e8 b9 f1 ff ff       	call   401180 <__errno_location@plt>
  401fc7:	8b 38                	mov    edi,DWORD PTR [rax]
  401fc9:	e8 b2 f2 ff ff       	call   401280 <strerror@plt>
  401fce:	48 8d 35 35 00 01 00 	lea    rsi,[rip+0x10035]        # 41200a <_IO_stdin_used+0xa>
  401fd5:	bf 01 00 00 00       	mov    edi,0x1
  401fda:	48 89 c2             	mov    rdx,rax
  401fdd:	31 c0                	xor    eax,eax
  401fdf:	e8 4c f2 ff ff       	call   401230 <__printf_chk@plt>
  401fe4:	e8 f7 f1 ff ff       	call   4011e0 <geteuid@plt>
  401fe9:	85 c0                	test   eax,eax
  401feb:	0f 84 e8 f5 ff ff    	je     4015d9 <win+0x63>
  401ff1:	e9 cb f5 ff ff       	jmp    4015c1 <win+0x4b>
  401ff6:	ba 00 01 00 00       	mov    edx,0x100
  401ffb:	48 89 ee             	mov    rsi,rbp
  401ffe:	e8 fd f1 ff ff       	call   401200 <read@plt>
  402003:	85 c0                	test   eax,eax
  402005:	7f 2a                	jg     402031 <win+0xabb>
  402007:	e8 74 f1 ff ff       	call   401180 <__errno_location@plt>
  40200c:	8b 38                	mov    edi,DWORD PTR [rax]
  40200e:	e8 6d f2 ff ff       	call   401280 <strerror@plt>
  402013:	bf 01 00 00 00       	mov    edi,0x1
  402018:	48 8d 35 8a 00 01 00 	lea    rsi,[rip+0x1008a]        # 4120a9 <_IO_stdin_used+0xa9>
  40201f:	48 89 c2             	mov    rdx,rax
  402022:	31 c0                	xor    eax,eax
  402024:	e8 07 f2 ff ff       	call   401230 <__printf_chk@plt>
  402029:	83 cf ff             	or     edi,0xffffffff
  40202c:	e8 2f f2 ff ff       	call   401260 <exit@plt>
  402031:	48 63 d0             	movsxd rdx,eax
  402034:	48 89 ee             	mov    rsi,rbp
  402037:	bf 01 00 00 00       	mov    edi,0x1
  40203c:	e8 5f f1 ff ff       	call   4011a0 <write@plt>
  402041:	48 8d 3d 0c 01 01 00 	lea    rdi,[rip+0x1010c]        # 412154 <_IO_stdin_used+0x154>
  402048:	e8 43 f1 ff ff       	call   401190 <puts@plt>
  40204d:	48 8d 3d b0 ff 00 00 	lea    rdi,[rip+0xffb0]        # 412004 <_IO_stdin_used+0x4>
  402054:	31 f6                	xor    esi,esi
  402056:	31 c0                	xor    eax,eax
  402058:	e8 f3 f1 ff ff       	call   401250 <open@plt>
  40205d:	89 c7                	mov    edi,eax
  40205f:	85 c0                	test   eax,eax
  402061:	79 34                	jns    402097 <win+0xb21>
  402063:	e8 18 f1 ff ff       	call   401180 <__errno_location@plt>
  402068:	8b 38                	mov    edi,DWORD PTR [rax]
  40206a:	e8 11 f2 ff ff       	call   401280 <strerror@plt>
  40206f:	48 8d 35 94 ff 00 00 	lea    rsi,[rip+0xff94]        # 41200a <_IO_stdin_used+0xa>
  402076:	bf 01 00 00 00       	mov    edi,0x1
  40207b:	48 89 c2             	mov    rdx,rax
  40207e:	31 c0                	xor    eax,eax
  402080:	e8 ab f1 ff ff       	call   401230 <__printf_chk@plt>
  402085:	e8 56 f1 ff ff       	call   4011e0 <geteuid@plt>
  40208a:	85 c0                	test   eax,eax
  40208c:	0f 84 47 f5 ff ff    	je     4015d9 <win+0x63>
  402092:	e9 2a f5 ff ff       	jmp    4015c1 <win+0x4b>
  402097:	ba 00 01 00 00       	mov    edx,0x100
  40209c:	48 89 ee             	mov    rsi,rbp
  40209f:	e8 5c f1 ff ff       	call   401200 <read@plt>
  4020a4:	85 c0                	test   eax,eax
  4020a6:	7f 2a                	jg     4020d2 <win+0xb5c>
  4020a8:	e8 d3 f0 ff ff       	call   401180 <__errno_location@plt>
  4020ad:	8b 38                	mov    edi,DWORD PTR [rax]
  4020af:	e8 cc f1 ff ff       	call   401280 <strerror@plt>
  4020b4:	bf 01 00 00 00       	mov    edi,0x1
  4020b9:	48 8d 35 e9 ff 00 00 	lea    rsi,[rip+0xffe9]        # 4120a9 <_IO_stdin_used+0xa9>
  4020c0:	48 89 c2             	mov    rdx,rax
  4020c3:	31 c0                	xor    eax,eax
  4020c5:	e8 66 f1 ff ff       	call   401230 <__printf_chk@plt>
  4020ca:	83 cf ff             	or     edi,0xffffffff
  4020cd:	e8 8e f1 ff ff       	call   401260 <exit@plt>
  4020d2:	48 63 d0             	movsxd rdx,eax
  4020d5:	48 89 ee             	mov    rsi,rbp
  4020d8:	bf 01 00 00 00       	mov    edi,0x1
  4020dd:	e8 be f0 ff ff       	call   4011a0 <write@plt>
  4020e2:	48 8d 3d 6b 00 01 00 	lea    rdi,[rip+0x1006b]        # 412154 <_IO_stdin_used+0x154>
  4020e9:	e8 a2 f0 ff ff       	call   401190 <puts@plt>
  4020ee:	48 8d 3d 0f ff 00 00 	lea    rdi,[rip+0xff0f]        # 412004 <_IO_stdin_used+0x4>
  4020f5:	31 f6                	xor    esi,esi
  4020f7:	31 c0                	xor    eax,eax
  4020f9:	e8 52 f1 ff ff       	call   401250 <open@plt>
  4020fe:	89 c7                	mov    edi,eax
  402100:	85 c0                	test   eax,eax
  402102:	79 34                	jns    402138 <win+0xbc2>
  402104:	e8 77 f0 ff ff       	call   401180 <__errno_location@plt>
  402109:	8b 38                	mov    edi,DWORD PTR [rax]
  40210b:	e8 70 f1 ff ff       	call   401280 <strerror@plt>
  402110:	48 8d 35 f3 fe 00 00 	lea    rsi,[rip+0xfef3]        # 41200a <_IO_stdin_used+0xa>
  402117:	bf 01 00 00 00       	mov    edi,0x1
  40211c:	48 89 c2             	mov    rdx,rax
  40211f:	31 c0                	xor    eax,eax
  402121:	e8 0a f1 ff ff       	call   401230 <__printf_chk@plt>
  402126:	e8 b5 f0 ff ff       	call   4011e0 <geteuid@plt>
  40212b:	85 c0                	test   eax,eax
  40212d:	0f 84 a6 f4 ff ff    	je     4015d9 <win+0x63>
  402133:	e9 89 f4 ff ff       	jmp    4015c1 <win+0x4b>
  402138:	ba 00 01 00 00       	mov    edx,0x100
  40213d:	48 89 ee             	mov    rsi,rbp
  402140:	e8 bb f0 ff ff       	call   401200 <read@plt>
  402145:	85 c0                	test   eax,eax
  402147:	7f 2a                	jg     402173 <win+0xbfd>
  402149:	e8 32 f0 ff ff       	call   401180 <__errno_location@plt>
  40214e:	8b 38                	mov    edi,DWORD PTR [rax]
  402150:	e8 2b f1 ff ff       	call   401280 <strerror@plt>
  402155:	bf 01 00 00 00       	mov    edi,0x1
  40215a:	48 8d 35 48 ff 00 00 	lea    rsi,[rip+0xff48]        # 4120a9 <_IO_stdin_used+0xa9>
  402161:	48 89 c2             	mov    rdx,rax
  402164:	31 c0                	xor    eax,eax
  402166:	e8 c5 f0 ff ff       	call   401230 <__printf_chk@plt>
  40216b:	83 cf ff             	or     edi,0xffffffff
  40216e:	e8 ed f0 ff ff       	call   401260 <exit@plt>
  402173:	48 63 d0             	movsxd rdx,eax
  402176:	48 89 ee             	mov    rsi,rbp
  402179:	bf 01 00 00 00       	mov    edi,0x1
  40217e:	e8 1d f0 ff ff       	call   4011a0 <write@plt>
  402183:	48 8d 3d ca ff 00 00 	lea    rdi,[rip+0xffca]        # 412154 <_IO_stdin_used+0x154>
  40218a:	e8 01 f0 ff ff       	call   401190 <puts@plt>
  40218f:	48 8d 3d 6e fe 00 00 	lea    rdi,[rip+0xfe6e]        # 412004 <_IO_stdin_used+0x4>
  402196:	31 f6                	xor    esi,esi
  402198:	31 c0                	xor    eax,eax
  40219a:	e8 b1 f0 ff ff       	call   401250 <open@plt>
  40219f:	89 c7                	mov    edi,eax
  4021a1:	85 c0                	test   eax,eax
  4021a3:	79 34                	jns    4021d9 <win+0xc63>
  4021a5:	e8 d6 ef ff ff       	call   401180 <__errno_location@plt>
  4021aa:	8b 38                	mov    edi,DWORD PTR [rax]
  4021ac:	e8 cf f0 ff ff       	call   401280 <strerror@plt>
  4021b1:	48 8d 35 52 fe 00 00 	lea    rsi,[rip+0xfe52]        # 41200a <_IO_stdin_used+0xa>
  4021b8:	bf 01 00 00 00       	mov    edi,0x1
  4021bd:	48 89 c2             	mov    rdx,rax
  4021c0:	31 c0                	xor    eax,eax
  4021c2:	e8 69 f0 ff ff       	call   401230 <__printf_chk@plt>
  4021c7:	e8 14 f0 ff ff       	call   4011e0 <geteuid@plt>
  4021cc:	85 c0                	test   eax,eax
  4021ce:	0f 84 05 f4 ff ff    	je     4015d9 <win+0x63>
  4021d4:	e9 e8 f3 ff ff       	jmp    4015c1 <win+0x4b>
  4021d9:	ba 00 01 00 00       	mov    edx,0x100
  4021de:	48 89 ee             	mov    rsi,rbp
  4021e1:	e8 1a f0 ff ff       	call   401200 <read@plt>
  4021e6:	85 c0                	test   eax,eax
  4021e8:	7f 2a                	jg     402214 <win+0xc9e>
  4021ea:	e8 91 ef ff ff       	call   401180 <__errno_location@plt>
  4021ef:	8b 38                	mov    edi,DWORD PTR [rax]
  4021f1:	e8 8a f0 ff ff       	call   401280 <strerror@plt>
  4021f6:	bf 01 00 00 00       	mov    edi,0x1
  4021fb:	48 8d 35 a7 fe 00 00 	lea    rsi,[rip+0xfea7]        # 4120a9 <_IO_stdin_used+0xa9>
  402202:	48 89 c2             	mov    rdx,rax
  402205:	31 c0                	xor    eax,eax
  402207:	e8 24 f0 ff ff       	call   401230 <__printf_chk@plt>
  40220c:	83 cf ff             	or     edi,0xffffffff
  40220f:	e8 4c f0 ff ff       	call   401260 <exit@plt>
  402214:	48 89 e5             	mov    rbp,rsp
  402217:	48 63 d0             	movsxd rdx,eax
  40221a:	bf 01 00 00 00       	mov    edi,0x1
  40221f:	48 89 ee             	mov    rsi,rbp
  402222:	e8 79 ef ff ff       	call   4011a0 <write@plt>
  402227:	48 8d 3d 26 ff 00 00 	lea    rdi,[rip+0xff26]        # 412154 <_IO_stdin_used+0x154>
  40222e:	e8 5d ef ff ff       	call   401190 <puts@plt>
  402233:	48 8d 3d ca fd 00 00 	lea    rdi,[rip+0xfdca]        # 412004 <_IO_stdin_used+0x4>
  40223a:	31 f6                	xor    esi,esi
  40223c:	31 c0                	xor    eax,eax
  40223e:	e8 0d f0 ff ff       	call   401250 <open@plt>
  402243:	89 c7                	mov    edi,eax
  402245:	85 c0                	test   eax,eax
  402247:	79 34                	jns    40227d <win+0xd07>
  402249:	e8 32 ef ff ff       	call   401180 <__errno_location@plt>
  40224e:	8b 38                	mov    edi,DWORD PTR [rax]
  402250:	e8 2b f0 ff ff       	call   401280 <strerror@plt>
  402255:	48 8d 35 ae fd 00 00 	lea    rsi,[rip+0xfdae]        # 41200a <_IO_stdin_used+0xa>
  40225c:	bf 01 00 00 00       	mov    edi,0x1
  402261:	48 89 c2             	mov    rdx,rax
  402264:	31 c0                	xor    eax,eax
  402266:	e8 c5 ef ff ff       	call   401230 <__printf_chk@plt>
  40226b:	e8 70 ef ff ff       	call   4011e0 <geteuid@plt>
  402270:	85 c0                	test   eax,eax
  402272:	0f 84 61 f3 ff ff    	je     4015d9 <win+0x63>
  402278:	e9 44 f3 ff ff       	jmp    4015c1 <win+0x4b>
  40227d:	ba 00 01 00 00       	mov    edx,0x100
  402282:	48 89 ee             	mov    rsi,rbp
  402285:	e8 76 ef ff ff       	call   401200 <read@plt>
  40228a:	85 c0                	test   eax,eax
  40228c:	7f 2a                	jg     4022b8 <win+0xd42>
  40228e:	e8 ed ee ff ff       	call   401180 <__errno_location@plt>
  402293:	8b 38                	mov    edi,DWORD PTR [rax]
  402295:	e8 e6 ef ff ff       	call   401280 <strerror@plt>
  40229a:	bf 01 00 00 00       	mov    edi,0x1
  40229f:	48 8d 35 03 fe 00 00 	lea    rsi,[rip+0xfe03]        # 4120a9 <_IO_stdin_used+0xa9>
  4022a6:	48 89 c2             	mov    rdx,rax
  4022a9:	31 c0                	xor    eax,eax
  4022ab:	e8 80 ef ff ff       	call   401230 <__printf_chk@plt>
  4022b0:	83 cf ff             	or     edi,0xffffffff
  4022b3:	e8 a8 ef ff ff       	call   401260 <exit@plt>
  4022b8:	48 63 d0             	movsxd rdx,eax
  4022bb:	48 89 ee             	mov    rsi,rbp
  4022be:	bf 01 00 00 00       	mov    edi,0x1
  4022c3:	e8 d8 ee ff ff       	call   4011a0 <write@plt>
  4022c8:	48 8d 3d 85 fe 00 00 	lea    rdi,[rip+0xfe85]        # 412154 <_IO_stdin_used+0x154>
  4022cf:	e8 bc ee ff ff       	call   401190 <puts@plt>
  4022d4:	48 8d 3d 29 fd 00 00 	lea    rdi,[rip+0xfd29]        # 412004 <_IO_stdin_used+0x4>
  4022db:	31 f6                	xor    esi,esi
  4022dd:	31 c0                	xor    eax,eax
  4022df:	e8 6c ef ff ff       	call   401250 <open@plt>
  4022e4:	89 c7                	mov    edi,eax
  4022e6:	85 c0                	test   eax,eax
  4022e8:	79 34                	jns    40231e <win+0xda8>
  4022ea:	e8 91 ee ff ff       	call   401180 <__errno_location@plt>
  4022ef:	8b 38                	mov    edi,DWORD PTR [rax]
  4022f1:	e8 8a ef ff ff       	call   401280 <strerror@plt>
  4022f6:	48 8d 35 0d fd 00 00 	lea    rsi,[rip+0xfd0d]        # 41200a <_IO_stdin_used+0xa>
  4022fd:	bf 01 00 00 00       	mov    edi,0x1
  402302:	48 89 c2             	mov    rdx,rax
  402305:	31 c0                	xor    eax,eax
  402307:	e8 24 ef ff ff       	call   401230 <__printf_chk@plt>
  40230c:	e8 cf ee ff ff       	call   4011e0 <geteuid@plt>
  402311:	85 c0                	test   eax,eax
  402313:	0f 84 c0 f2 ff ff    	je     4015d9 <win+0x63>
  402319:	e9 a3 f2 ff ff       	jmp    4015c1 <win+0x4b>
  40231e:	ba 00 01 00 00       	mov    edx,0x100
  402323:	48 89 ee             	mov    rsi,rbp
  402326:	e8 d5 ee ff ff       	call   401200 <read@plt>
  40232b:	85 c0                	test   eax,eax
  40232d:	7f 2a                	jg     402359 <win+0xde3>
  40232f:	e8 4c ee ff ff       	call   401180 <__errno_location@plt>
  402334:	8b 38                	mov    edi,DWORD PTR [rax]
  402336:	e8 45 ef ff ff       	call   401280 <strerror@plt>
  40233b:	bf 01 00 00 00       	mov    edi,0x1
  402340:	48 8d 35 62 fd 00 00 	lea    rsi,[rip+0xfd62]        # 4120a9 <_IO_stdin_used+0xa9>
  402347:	48 89 c2             	mov    rdx,rax
  40234a:	31 c0                	xor    eax,eax
  40234c:	e8 df ee ff ff       	call   401230 <__printf_chk@plt>
  402351:	83 cf ff             	or     edi,0xffffffff
  402354:	e8 07 ef ff ff       	call   401260 <exit@plt>
  402359:	48 63 d0             	movsxd rdx,eax
  40235c:	48 89 ee             	mov    rsi,rbp
  40235f:	bf 01 00 00 00       	mov    edi,0x1
  402364:	e8 37 ee ff ff       	call   4011a0 <write@plt>
  402369:	48 8d 3d e4 fd 00 00 	lea    rdi,[rip+0xfde4]        # 412154 <_IO_stdin_used+0x154>
  402370:	e8 1b ee ff ff       	call   401190 <puts@plt>
  402375:	48 8d 3d 88 fc 00 00 	lea    rdi,[rip+0xfc88]        # 412004 <_IO_stdin_used+0x4>
  40237c:	31 f6                	xor    esi,esi
  40237e:	31 c0                	xor    eax,eax
  402380:	e8 cb ee ff ff       	call   401250 <open@plt>
  402385:	89 c7                	mov    edi,eax
  402387:	85 c0                	test   eax,eax
  402389:	79 34                	jns    4023bf <win+0xe49>
  40238b:	e8 f0 ed ff ff       	call   401180 <__errno_location@plt>
  402390:	8b 38                	mov    edi,DWORD PTR [rax]
  402392:	e8 e9 ee ff ff       	call   401280 <strerror@plt>
  402397:	48 8d 35 6c fc 00 00 	lea    rsi,[rip+0xfc6c]        # 41200a <_IO_stdin_used+0xa>
  40239e:	bf 01 00 00 00       	mov    edi,0x1
  4023a3:	48 89 c2             	mov    rdx,rax
  4023a6:	31 c0                	xor    eax,eax
  4023a8:	e8 83 ee ff ff       	call   401230 <__printf_chk@plt>
  4023ad:	e8 2e ee ff ff       	call   4011e0 <geteuid@plt>
  4023b2:	85 c0                	test   eax,eax
  4023b4:	0f 84 1f f2 ff ff    	je     4015d9 <win+0x63>
  4023ba:	e9 02 f2 ff ff       	jmp    4015c1 <win+0x4b>
  4023bf:	ba 00 01 00 00       	mov    edx,0x100
  4023c4:	48 89 ee             	mov    rsi,rbp
  4023c7:	e8 34 ee ff ff       	call   401200 <read@plt>
  4023cc:	85 c0                	test   eax,eax
  4023ce:	7f 2a                	jg     4023fa <win+0xe84>
  4023d0:	e8 ab ed ff ff       	call   401180 <__errno_location@plt>
  4023d5:	8b 38                	mov    edi,DWORD PTR [rax]
  4023d7:	e8 a4 ee ff ff       	call   401280 <strerror@plt>
  4023dc:	bf 01 00 00 00       	mov    edi,0x1
  4023e1:	48 8d 35 c1 fc 00 00 	lea    rsi,[rip+0xfcc1]        # 4120a9 <_IO_stdin_used+0xa9>
  4023e8:	48 89 c2             	mov    rdx,rax
  4023eb:	31 c0                	xor    eax,eax
  4023ed:	e8 3e ee ff ff       	call   401230 <__printf_chk@plt>
  4023f2:	83 cf ff             	or     edi,0xffffffff
  4023f5:	e8 66 ee ff ff       	call   401260 <exit@plt>
  4023fa:	48 63 d0             	movsxd rdx,eax
  4023fd:	48 89 ee             	mov    rsi,rbp
  402400:	bf 01 00 00 00       	mov    edi,0x1
  402405:	e8 96 ed ff ff       	call   4011a0 <write@plt>
  40240a:	48 8d 3d 43 fd 00 00 	lea    rdi,[rip+0xfd43]        # 412154 <_IO_stdin_used+0x154>
  402411:	e8 7a ed ff ff       	call   401190 <puts@plt>
  402416:	48 8d 3d e7 fb 00 00 	lea    rdi,[rip+0xfbe7]        # 412004 <_IO_stdin_used+0x4>
  40241d:	31 f6                	xor    esi,esi
  40241f:	31 c0                	xor    eax,eax
  402421:	e8 2a ee ff ff       	call   401250 <open@plt>
  402426:	89 c7                	mov    edi,eax
  402428:	85 c0                	test   eax,eax
  40242a:	79 34                	jns    402460 <win+0xeea>
  40242c:	e8 4f ed ff ff       	call   401180 <__errno_location@plt>
  402431:	8b 38                	mov    edi,DWORD PTR [rax]
  402433:	e8 48 ee ff ff       	call   401280 <strerror@plt>
  402438:	48 8d 35 cb fb 00 00 	lea    rsi,[rip+0xfbcb]        # 41200a <_IO_stdin_used+0xa>
  40243f:	bf 01 00 00 00       	mov    edi,0x1
  402444:	48 89 c2             	mov    rdx,rax
  402447:	31 c0                	xor    eax,eax
  402449:	e8 e2 ed ff ff       	call   401230 <__printf_chk@plt>
  40244e:	e8 8d ed ff ff       	call   4011e0 <geteuid@plt>
  402453:	85 c0                	test   eax,eax
  402455:	0f 84 7e f1 ff ff    	je     4015d9 <win+0x63>
  40245b:	e9 61 f1 ff ff       	jmp    4015c1 <win+0x4b>
  402460:	ba 00 01 00 00       	mov    edx,0x100
  402465:	48 89 ee             	mov    rsi,rbp
  402468:	e8 93 ed ff ff       	call   401200 <read@plt>
  40246d:	85 c0                	test   eax,eax
  40246f:	7f 2a                	jg     40249b <win+0xf25>
  402471:	e8 0a ed ff ff       	call   401180 <__errno_location@plt>
  402476:	8b 38                	mov    edi,DWORD PTR [rax]
  402478:	e8 03 ee ff ff       	call   401280 <strerror@plt>
  40247d:	bf 01 00 00 00       	mov    edi,0x1
  402482:	48 8d 35 20 fc 00 00 	lea    rsi,[rip+0xfc20]        # 4120a9 <_IO_stdin_used+0xa9>
  402489:	48 89 c2             	mov    rdx,rax
  40248c:	31 c0                	xor    eax,eax
  40248e:	e8 9d ed ff ff       	call   401230 <__printf_chk@plt>
  402493:	83 cf ff             	or     edi,0xffffffff
  402496:	e8 c5 ed ff ff       	call   401260 <exit@plt>
  40249b:	48 63 d0             	movsxd rdx,eax
  40249e:	48 89 ee             	mov    rsi,rbp
  4024a1:	bf 01 00 00 00       	mov    edi,0x1
  4024a6:	e8 f5 ec ff ff       	call   4011a0 <write@plt>
  4024ab:	48 8d 3d a2 fc 00 00 	lea    rdi,[rip+0xfca2]        # 412154 <_IO_stdin_used+0x154>
  4024b2:	e8 d9 ec ff ff       	call   401190 <puts@plt>
  4024b7:	48 8d 3d 46 fb 00 00 	lea    rdi,[rip+0xfb46]        # 412004 <_IO_stdin_used+0x4>
  4024be:	31 f6                	xor    esi,esi
  4024c0:	31 c0                	xor    eax,eax
  4024c2:	e8 89 ed ff ff       	call   401250 <open@plt>
  4024c7:	89 c7                	mov    edi,eax
  4024c9:	85 c0                	test   eax,eax
  4024cb:	79 34                	jns    402501 <win+0xf8b>
  4024cd:	e8 ae ec ff ff       	call   401180 <__errno_location@plt>
  4024d2:	8b 38                	mov    edi,DWORD PTR [rax]
  4024d4:	e8 a7 ed ff ff       	call   401280 <strerror@plt>
  4024d9:	48 8d 35 2a fb 00 00 	lea    rsi,[rip+0xfb2a]        # 41200a <_IO_stdin_used+0xa>
  4024e0:	bf 01 00 00 00       	mov    edi,0x1
  4024e5:	48 89 c2             	mov    rdx,rax
  4024e8:	31 c0                	xor    eax,eax
  4024ea:	e8 41 ed ff ff       	call   401230 <__printf_chk@plt>
  4024ef:	e8 ec ec ff ff       	call   4011e0 <geteuid@plt>
  4024f4:	85 c0                	test   eax,eax
  4024f6:	0f 84 dd f0 ff ff    	je     4015d9 <win+0x63>
  4024fc:	e9 c0 f0 ff ff       	jmp    4015c1 <win+0x4b>
  402501:	ba 00 01 00 00       	mov    edx,0x100
  402506:	48 89 ee             	mov    rsi,rbp
  402509:	e8 f2 ec ff ff       	call   401200 <read@plt>
  40250e:	85 c0                	test   eax,eax
  402510:	7f 2a                	jg     40253c <win+0xfc6>
  402512:	e8 69 ec ff ff       	call   401180 <__errno_location@plt>
  402517:	8b 38                	mov    edi,DWORD PTR [rax]
  402519:	e8 62 ed ff ff       	call   401280 <strerror@plt>
  40251e:	bf 01 00 00 00       	mov    edi,0x1
  402523:	48 8d 35 7f fb 00 00 	lea    rsi,[rip+0xfb7f]        # 4120a9 <_IO_stdin_used+0xa9>
  40252a:	48 89 c2             	mov    rdx,rax
  40252d:	31 c0                	xor    eax,eax
  40252f:	e8 fc ec ff ff       	call   401230 <__printf_chk@plt>
  402534:	83 cf ff             	or     edi,0xffffffff
  402537:	e8 24 ed ff ff       	call   401260 <exit@plt>
  40253c:	48 63 d0             	movsxd rdx,eax
  40253f:	48 89 ee             	mov    rsi,rbp
  402542:	bf 01 00 00 00       	mov    edi,0x1
  402547:	e8 54 ec ff ff       	call   4011a0 <write@plt>
  40254c:	48 8d 3d 01 fc 00 00 	lea    rdi,[rip+0xfc01]        # 412154 <_IO_stdin_used+0x154>
  402553:	e8 38 ec ff ff       	call   401190 <puts@plt>
  402558:	48 8d 3d a5 fa 00 00 	lea    rdi,[rip+0xfaa5]        # 412004 <_IO_stdin_used+0x4>
  40255f:	31 f6                	xor    esi,esi
  402561:	31 c0                	xor    eax,eax
  402563:	e8 e8 ec ff ff       	call   401250 <open@plt>
  402568:	89 c7                	mov    edi,eax
  40256a:	85 c0                	test   eax,eax
  40256c:	79 34                	jns    4025a2 <win+0x102c>
  40256e:	e8 0d ec ff ff       	call   401180 <__errno_location@plt>
  402573:	8b 38                	mov    edi,DWORD PTR [rax]
  402575:	e8 06 ed ff ff       	call   401280 <strerror@plt>
  40257a:	48 8d 35 89 fa 00 00 	lea    rsi,[rip+0xfa89]        # 41200a <_IO_stdin_used+0xa>
  402581:	bf 01 00 00 00       	mov    edi,0x1
  402586:	48 89 c2             	mov    rdx,rax
  402589:	31 c0                	xor    eax,eax
  40258b:	e8 a0 ec ff ff       	call   401230 <__printf_chk@plt>
  402590:	e8 4b ec ff ff       	call   4011e0 <geteuid@plt>
  402595:	85 c0                	test   eax,eax
  402597:	0f 84 3c f0 ff ff    	je     4015d9 <win+0x63>
  40259d:	e9 1f f0 ff ff       	jmp    4015c1 <win+0x4b>
  4025a2:	ba 00 01 00 00       	mov    edx,0x100
  4025a7:	48 89 ee             	mov    rsi,rbp
  4025aa:	e8 51 ec ff ff       	call   401200 <read@plt>
  4025af:	85 c0                	test   eax,eax
  4025b1:	7f 2a                	jg     4025dd <win+0x1067>
  4025b3:	e8 c8 eb ff ff       	call   401180 <__errno_location@plt>
  4025b8:	8b 38                	mov    edi,DWORD PTR [rax]
  4025ba:	e8 c1 ec ff ff       	call   401280 <strerror@plt>
  4025bf:	bf 01 00 00 00       	mov    edi,0x1
  4025c4:	48 8d 35 de fa 00 00 	lea    rsi,[rip+0xfade]        # 4120a9 <_IO_stdin_used+0xa9>
  4025cb:	48 89 c2             	mov    rdx,rax
  4025ce:	31 c0                	xor    eax,eax
  4025d0:	e8 5b ec ff ff       	call   401230 <__printf_chk@plt>
  4025d5:	83 cf ff             	or     edi,0xffffffff
  4025d8:	e8 83 ec ff ff       	call   401260 <exit@plt>
  4025dd:	48 63 d0             	movsxd rdx,eax
  4025e0:	48 89 ee             	mov    rsi,rbp
  4025e3:	bf 01 00 00 00       	mov    edi,0x1
  4025e8:	e8 b3 eb ff ff       	call   4011a0 <write@plt>
  4025ed:	48 8d 3d 60 fb 00 00 	lea    rdi,[rip+0xfb60]        # 412154 <_IO_stdin_used+0x154>
  4025f4:	e8 97 eb ff ff       	call   401190 <puts@plt>
  4025f9:	48 8d 3d 04 fa 00 00 	lea    rdi,[rip+0xfa04]        # 412004 <_IO_stdin_used+0x4>
  402600:	31 f6                	xor    esi,esi
  402602:	31 c0                	xor    eax,eax
  402604:	e8 47 ec ff ff       	call   401250 <open@plt>
  402609:	89 c7                	mov    edi,eax
  40260b:	85 c0                	test   eax,eax
  40260d:	79 34                	jns    402643 <win+0x10cd>
  40260f:	e8 6c eb ff ff       	call   401180 <__errno_location@plt>
  402614:	8b 38                	mov    edi,DWORD PTR [rax]
  402616:	e8 65 ec ff ff       	call   401280 <strerror@plt>
  40261b:	48 8d 35 e8 f9 00 00 	lea    rsi,[rip+0xf9e8]        # 41200a <_IO_stdin_used+0xa>
  402622:	bf 01 00 00 00       	mov    edi,0x1
  402627:	48 89 c2             	mov    rdx,rax
  40262a:	31 c0                	xor    eax,eax
  40262c:	e8 ff eb ff ff       	call   401230 <__printf_chk@plt>
  402631:	e8 aa eb ff ff       	call   4011e0 <geteuid@plt>
  402636:	85 c0                	test   eax,eax
  402638:	0f 84 9b ef ff ff    	je     4015d9 <win+0x63>
  40263e:	e9 7e ef ff ff       	jmp    4015c1 <win+0x4b>
  402643:	ba 00 01 00 00       	mov    edx,0x100
  402648:	48 89 ee             	mov    rsi,rbp
  40264b:	e8 b0 eb ff ff       	call   401200 <read@plt>
  402650:	85 c0                	test   eax,eax
  402652:	7f 2a                	jg     40267e <win+0x1108>
  402654:	e8 27 eb ff ff       	call   401180 <__errno_location@plt>
  402659:	8b 38                	mov    edi,DWORD PTR [rax]
  40265b:	e8 20 ec ff ff       	call   401280 <strerror@plt>
  402660:	bf 01 00 00 00       	mov    edi,0x1
  402665:	48 8d 35 3d fa 00 00 	lea    rsi,[rip+0xfa3d]        # 4120a9 <_IO_stdin_used+0xa9>
  40266c:	48 89 c2             	mov    rdx,rax
  40266f:	31 c0                	xor    eax,eax
  402671:	e8 ba eb ff ff       	call   401230 <__printf_chk@plt>
  402676:	83 cf ff             	or     edi,0xffffffff
  402679:	e8 e2 eb ff ff       	call   401260 <exit@plt>
  40267e:	48 63 d0             	movsxd rdx,eax
  402681:	48 89 ee             	mov    rsi,rbp
  402684:	bf 01 00 00 00       	mov    edi,0x1
  402689:	e8 12 eb ff ff       	call   4011a0 <write@plt>
  40268e:	48 8d 3d bf fa 00 00 	lea    rdi,[rip+0xfabf]        # 412154 <_IO_stdin_used+0x154>
  402695:	e8 f6 ea ff ff       	call   401190 <puts@plt>
  40269a:	48 8d 3d 63 f9 00 00 	lea    rdi,[rip+0xf963]        # 412004 <_IO_stdin_used+0x4>
  4026a1:	31 f6                	xor    esi,esi
  4026a3:	31 c0                	xor    eax,eax
  4026a5:	e8 a6 eb ff ff       	call   401250 <open@plt>
  4026aa:	89 c7                	mov    edi,eax
  4026ac:	85 c0                	test   eax,eax
  4026ae:	79 34                	jns    4026e4 <win+0x116e>
  4026b0:	e8 cb ea ff ff       	call   401180 <__errno_location@plt>
  4026b5:	8b 38                	mov    edi,DWORD PTR [rax]
  4026b7:	e8 c4 eb ff ff       	call   401280 <strerror@plt>
  4026bc:	48 8d 35 47 f9 00 00 	lea    rsi,[rip+0xf947]        # 41200a <_IO_stdin_used+0xa>
  4026c3:	bf 01 00 00 00       	mov    edi,0x1
  4026c8:	48 89 c2             	mov    rdx,rax
  4026cb:	31 c0                	xor    eax,eax
  4026cd:	e8 5e eb ff ff       	call   401230 <__printf_chk@plt>
  4026d2:	e8 09 eb ff ff       	call   4011e0 <geteuid@plt>
  4026d7:	85 c0                	test   eax,eax
  4026d9:	0f 84 fa ee ff ff    	je     4015d9 <win+0x63>
  4026df:	e9 dd ee ff ff       	jmp    4015c1 <win+0x4b>
  4026e4:	ba 00 01 00 00       	mov    edx,0x100
  4026e9:	48 89 ee             	mov    rsi,rbp
  4026ec:	e8 0f eb ff ff       	call   401200 <read@plt>
  4026f1:	85 c0                	test   eax,eax
  4026f3:	7f 2a                	jg     40271f <win+0x11a9>
  4026f5:	e8 86 ea ff ff       	call   401180 <__errno_location@plt>
  4026fa:	8b 38                	mov    edi,DWORD PTR [rax]
  4026fc:	e8 7f eb ff ff       	call   401280 <strerror@plt>
  402701:	bf 01 00 00 00       	mov    edi,0x1
  402706:	48 8d 35 9c f9 00 00 	lea    rsi,[rip+0xf99c]        # 4120a9 <_IO_stdin_used+0xa9>
  40270d:	48 89 c2             	mov    rdx,rax
  402710:	31 c0                	xor    eax,eax
  402712:	e8 19 eb ff ff       	call   401230 <__printf_chk@plt>
  402717:	83 cf ff             	or     edi,0xffffffff
  40271a:	e8 41 eb ff ff       	call   401260 <exit@plt>
  40271f:	48 63 d0             	movsxd rdx,eax
  402722:	48 89 ee             	mov    rsi,rbp
  402725:	bf 01 00 00 00       	mov    edi,0x1
  40272a:	e8 71 ea ff ff       	call   4011a0 <write@plt>
  40272f:	48 8d 3d 1e fa 00 00 	lea    rdi,[rip+0xfa1e]        # 412154 <_IO_stdin_used+0x154>
  402736:	e8 55 ea ff ff       	call   401190 <puts@plt>
  40273b:	48 8d 3d c2 f8 00 00 	lea    rdi,[rip+0xf8c2]        # 412004 <_IO_stdin_used+0x4>
  402742:	31 f6                	xor    esi,esi
  402744:	31 c0                	xor    eax,eax
  402746:	e8 05 eb ff ff       	call   401250 <open@plt>
  40274b:	89 c7                	mov    edi,eax
  40274d:	85 c0                	test   eax,eax
  40274f:	79 34                	jns    402785 <win+0x120f>
  402751:	e8 2a ea ff ff       	call   401180 <__errno_location@plt>
  402756:	8b 38                	mov    edi,DWORD PTR [rax]
  402758:	e8 23 eb ff ff       	call   401280 <strerror@plt>
  40275d:	48 8d 35 a6 f8 00 00 	lea    rsi,[rip+0xf8a6]        # 41200a <_IO_stdin_used+0xa>
  402764:	bf 01 00 00 00       	mov    edi,0x1
  402769:	48 89 c2             	mov    rdx,rax
  40276c:	31 c0                	xor    eax,eax
  40276e:	e8 bd ea ff ff       	call   401230 <__printf_chk@plt>
  402773:	e8 68 ea ff ff       	call   4011e0 <geteuid@plt>
  402778:	85 c0                	test   eax,eax
  40277a:	0f 84 59 ee ff ff    	je     4015d9 <win+0x63>
  402780:	e9 3c ee ff ff       	jmp    4015c1 <win+0x4b>
  402785:	ba 00 01 00 00       	mov    edx,0x100
  40278a:	48 89 ee             	mov    rsi,rbp
  40278d:	e8 6e ea ff ff       	call   401200 <read@plt>
  402792:	85 c0                	test   eax,eax
  402794:	7f 2a                	jg     4027c0 <win+0x124a>
  402796:	e8 e5 e9 ff ff       	call   401180 <__errno_location@plt>
  40279b:	8b 38                	mov    edi,DWORD PTR [rax]
  40279d:	e8 de ea ff ff       	call   401280 <strerror@plt>
  4027a2:	bf 01 00 00 00       	mov    edi,0x1
  4027a7:	48 8d 35 fb f8 00 00 	lea    rsi,[rip+0xf8fb]        # 4120a9 <_IO_stdin_used+0xa9>
  4027ae:	48 89 c2             	mov    rdx,rax
  4027b1:	31 c0                	xor    eax,eax
  4027b3:	e8 78 ea ff ff       	call   401230 <__printf_chk@plt>
  4027b8:	83 cf ff             	or     edi,0xffffffff
  4027bb:	e8 a0 ea ff ff       	call   401260 <exit@plt>
  4027c0:	48 63 d0             	movsxd rdx,eax
  4027c3:	48 89 ee             	mov    rsi,rbp
  4027c6:	bf 01 00 00 00       	mov    edi,0x1
  4027cb:	e8 d0 e9 ff ff       	call   4011a0 <write@plt>
  4027d0:	48 8d 3d 7d f9 00 00 	lea    rdi,[rip+0xf97d]        # 412154 <_IO_stdin_used+0x154>
  4027d7:	e8 b4 e9 ff ff       	call   401190 <puts@plt>
  4027dc:	48 8d 3d 21 f8 00 00 	lea    rdi,[rip+0xf821]        # 412004 <_IO_stdin_used+0x4>
  4027e3:	31 f6                	xor    esi,esi
  4027e5:	31 c0                	xor    eax,eax
  4027e7:	e8 64 ea ff ff       	call   401250 <open@plt>
  4027ec:	89 c7                	mov    edi,eax
  4027ee:	85 c0                	test   eax,eax
  4027f0:	79 34                	jns    402826 <win+0x12b0>
  4027f2:	e8 89 e9 ff ff       	call   401180 <__errno_location@plt>
  4027f7:	8b 38                	mov    edi,DWORD PTR [rax]
  4027f9:	e8 82 ea ff ff       	call   401280 <strerror@plt>
  4027fe:	48 8d 35 05 f8 00 00 	lea    rsi,[rip+0xf805]        # 41200a <_IO_stdin_used+0xa>
  402805:	bf 01 00 00 00       	mov    edi,0x1
  40280a:	48 89 c2             	mov    rdx,rax
  40280d:	31 c0                	xor    eax,eax
  40280f:	e8 1c ea ff ff       	call   401230 <__printf_chk@plt>
  402814:	e8 c7 e9 ff ff       	call   4011e0 <geteuid@plt>
  402819:	85 c0                	test   eax,eax
  40281b:	0f 84 b8 ed ff ff    	je     4015d9 <win+0x63>
  402821:	e9 9b ed ff ff       	jmp    4015c1 <win+0x4b>
  402826:	ba 00 01 00 00       	mov    edx,0x100
  40282b:	48 89 ee             	mov    rsi,rbp
  40282e:	e8 cd e9 ff ff       	call   401200 <read@plt>
  402833:	85 c0                	test   eax,eax
  402835:	7f 2a                	jg     402861 <win+0x12eb>
  402837:	e8 44 e9 ff ff       	call   401180 <__errno_location@plt>
  40283c:	8b 38                	mov    edi,DWORD PTR [rax]
  40283e:	e8 3d ea ff ff       	call   401280 <strerror@plt>
  402843:	bf 01 00 00 00       	mov    edi,0x1
  402848:	48 8d 35 5a f8 00 00 	lea    rsi,[rip+0xf85a]        # 4120a9 <_IO_stdin_used+0xa9>
  40284f:	48 89 c2             	mov    rdx,rax
  402852:	31 c0                	xor    eax,eax
  402854:	e8 d7 e9 ff ff       	call   401230 <__printf_chk@plt>
  402859:	83 cf ff             	or     edi,0xffffffff
  40285c:	e8 ff e9 ff ff       	call   401260 <exit@plt>
  402861:	48 63 d0             	movsxd rdx,eax
  402864:	48 89 ee             	mov    rsi,rbp
  402867:	bf 01 00 00 00       	mov    edi,0x1
  40286c:	e8 2f e9 ff ff       	call   4011a0 <write@plt>
  402871:	48 8d 3d dc f8 00 00 	lea    rdi,[rip+0xf8dc]        # 412154 <_IO_stdin_used+0x154>
  402878:	e8 13 e9 ff ff       	call   401190 <puts@plt>
  40287d:	48 8d 3d 80 f7 00 00 	lea    rdi,[rip+0xf780]        # 412004 <_IO_stdin_used+0x4>
  402884:	31 f6                	xor    esi,esi
  402886:	31 c0                	xor    eax,eax
  402888:	e8 c3 e9 ff ff       	call   401250 <open@plt>
  40288d:	89 c7                	mov    edi,eax
  40288f:	85 c0                	test   eax,eax
  402891:	79 34                	jns    4028c7 <win+0x1351>
  402893:	e8 e8 e8 ff ff       	call   401180 <__errno_location@plt>
  402898:	8b 38                	mov    edi,DWORD PTR [rax]
  40289a:	e8 e1 e9 ff ff       	call   401280 <strerror@plt>
  40289f:	48 8d 35 64 f7 00 00 	lea    rsi,[rip+0xf764]        # 41200a <_IO_stdin_used+0xa>
  4028a6:	bf 01 00 00 00       	mov    edi,0x1
  4028ab:	48 89 c2             	mov    rdx,rax
  4028ae:	31 c0                	xor    eax,eax
  4028b0:	e8 7b e9 ff ff       	call   401230 <__printf_chk@plt>
  4028b5:	e8 26 e9 ff ff       	call   4011e0 <geteuid@plt>
  4028ba:	85 c0                	test   eax,eax
  4028bc:	0f 84 17 ed ff ff    	je     4015d9 <win+0x63>
  4028c2:	e9 fa ec ff ff       	jmp    4015c1 <win+0x4b>
  4028c7:	ba 00 01 00 00       	mov    edx,0x100
  4028cc:	48 89 ee             	mov    rsi,rbp
  4028cf:	e8 2c e9 ff ff       	call   401200 <read@plt>
  4028d4:	85 c0                	test   eax,eax
  4028d6:	7f 2a                	jg     402902 <win+0x138c>
  4028d8:	e8 a3 e8 ff ff       	call   401180 <__errno_location@plt>
  4028dd:	8b 38                	mov    edi,DWORD PTR [rax]
  4028df:	e8 9c e9 ff ff       	call   401280 <strerror@plt>
  4028e4:	bf 01 00 00 00       	mov    edi,0x1
  4028e9:	48 8d 35 b9 f7 00 00 	lea    rsi,[rip+0xf7b9]        # 4120a9 <_IO_stdin_used+0xa9>
  4028f0:	48 89 c2             	mov    rdx,rax
  4028f3:	31 c0                	xor    eax,eax
  4028f5:	e8 36 e9 ff ff       	call   401230 <__printf_chk@plt>
  4028fa:	83 cf ff             	or     edi,0xffffffff
  4028fd:	e8 5e e9 ff ff       	call   401260 <exit@plt>
  402902:	48 63 d0             	movsxd rdx,eax
  402905:	48 89 ee             	mov    rsi,rbp
  402908:	bf 01 00 00 00       	mov    edi,0x1
  40290d:	e8 8e e8 ff ff       	call   4011a0 <write@plt>
  402912:	48 8d 3d 3b f8 00 00 	lea    rdi,[rip+0xf83b]        # 412154 <_IO_stdin_used+0x154>
  402919:	e8 72 e8 ff ff       	call   401190 <puts@plt>
  40291e:	48 8d 3d df f6 00 00 	lea    rdi,[rip+0xf6df]        # 412004 <_IO_stdin_used+0x4>
  402925:	31 f6                	xor    esi,esi
  402927:	31 c0                	xor    eax,eax
  402929:	e8 22 e9 ff ff       	call   401250 <open@plt>
  40292e:	89 c7                	mov    edi,eax
  402930:	85 c0                	test   eax,eax
  402932:	79 34                	jns    402968 <win+0x13f2>
  402934:	e8 47 e8 ff ff       	call   401180 <__errno_location@plt>
  402939:	8b 38                	mov    edi,DWORD PTR [rax]
  40293b:	e8 40 e9 ff ff       	call   401280 <strerror@plt>
  402940:	48 8d 35 c3 f6 00 00 	lea    rsi,[rip+0xf6c3]        # 41200a <_IO_stdin_used+0xa>
  402947:	bf 01 00 00 00       	mov    edi,0x1
  40294c:	48 89 c2             	mov    rdx,rax
  40294f:	31 c0                	xor    eax,eax
  402951:	e8 da e8 ff ff       	call   401230 <__printf_chk@plt>
  402956:	e8 85 e8 ff ff       	call   4011e0 <geteuid@plt>
  40295b:	85 c0                	test   eax,eax
  40295d:	0f 84 76 ec ff ff    	je     4015d9 <win+0x63>
  402963:	e9 59 ec ff ff       	jmp    4015c1 <win+0x4b>
  402968:	ba 00 01 00 00       	mov    edx,0x100
  40296d:	48 89 ee             	mov    rsi,rbp
  402970:	e8 8b e8 ff ff       	call   401200 <read@plt>
  402975:	85 c0                	test   eax,eax
  402977:	7f 2a                	jg     4029a3 <win+0x142d>
  402979:	e8 02 e8 ff ff       	call   401180 <__errno_location@plt>
  40297e:	8b 38                	mov    edi,DWORD PTR [rax]
  402980:	e8 fb e8 ff ff       	call   401280 <strerror@plt>
  402985:	bf 01 00 00 00       	mov    edi,0x1
  40298a:	48 8d 35 18 f7 00 00 	lea    rsi,[rip+0xf718]        # 4120a9 <_IO_stdin_used+0xa9>
  402991:	48 89 c2             	mov    rdx,rax
  402994:	31 c0                	xor    eax,eax
  402996:	e8 95 e8 ff ff       	call   401230 <__printf_chk@plt>
  40299b:	83 cf ff             	or     edi,0xffffffff
  40299e:	e8 bd e8 ff ff       	call   401260 <exit@plt>
  4029a3:	48 63 d0             	movsxd rdx,eax
  4029a6:	48 89 ee             	mov    rsi,rbp
  4029a9:	bf 01 00 00 00       	mov    edi,0x1
  4029ae:	e8 ed e7 ff ff       	call   4011a0 <write@plt>
  4029b3:	48 8d 3d 9a f7 00 00 	lea    rdi,[rip+0xf79a]        # 412154 <_IO_stdin_used+0x154>
  4029ba:	e8 d1 e7 ff ff       	call   401190 <puts@plt>
  4029bf:	48 8d 3d 3e f6 00 00 	lea    rdi,[rip+0xf63e]        # 412004 <_IO_stdin_used+0x4>
  4029c6:	31 f6                	xor    esi,esi
  4029c8:	31 c0                	xor    eax,eax
  4029ca:	e8 81 e8 ff ff       	call   401250 <open@plt>
  4029cf:	89 c7                	mov    edi,eax
  4029d1:	85 c0                	test   eax,eax
  4029d3:	79 34                	jns    402a09 <win+0x1493>
  4029d5:	e8 a6 e7 ff ff       	call   401180 <__errno_location@plt>
  4029da:	8b 38                	mov    edi,DWORD PTR [rax]
  4029dc:	e8 9f e8 ff ff       	call   401280 <strerror@plt>
  4029e1:	48 8d 35 22 f6 00 00 	lea    rsi,[rip+0xf622]        # 41200a <_IO_stdin_used+0xa>
  4029e8:	bf 01 00 00 00       	mov    edi,0x1
  4029ed:	48 89 c2             	mov    rdx,rax
  4029f0:	31 c0                	xor    eax,eax
  4029f2:	e8 39 e8 ff ff       	call   401230 <__printf_chk@plt>
  4029f7:	e8 e4 e7 ff ff       	call   4011e0 <geteuid@plt>
  4029fc:	85 c0                	test   eax,eax
  4029fe:	0f 84 d5 eb ff ff    	je     4015d9 <win+0x63>
  402a04:	e9 b8 eb ff ff       	jmp    4015c1 <win+0x4b>
  402a09:	ba 00 01 00 00       	mov    edx,0x100
  402a0e:	48 89 ee             	mov    rsi,rbp
  402a11:	e8 ea e7 ff ff       	call   401200 <read@plt>
  402a16:	85 c0                	test   eax,eax
  402a18:	7f 2a                	jg     402a44 <win+0x14ce>
  402a1a:	e8 61 e7 ff ff       	call   401180 <__errno_location@plt>
  402a1f:	8b 38                	mov    edi,DWORD PTR [rax]
  402a21:	e8 5a e8 ff ff       	call   401280 <strerror@plt>
  402a26:	bf 01 00 00 00       	mov    edi,0x1
  402a2b:	48 8d 35 77 f6 00 00 	lea    rsi,[rip+0xf677]        # 4120a9 <_IO_stdin_used+0xa9>
  402a32:	48 89 c2             	mov    rdx,rax
  402a35:	31 c0                	xor    eax,eax
  402a37:	e8 f4 e7 ff ff       	call   401230 <__printf_chk@plt>
  402a3c:	83 cf ff             	or     edi,0xffffffff
  402a3f:	e8 1c e8 ff ff       	call   401260 <exit@plt>
  402a44:	48 63 d0             	movsxd rdx,eax
  402a47:	48 89 ee             	mov    rsi,rbp
  402a4a:	bf 01 00 00 00       	mov    edi,0x1
  402a4f:	e8 4c e7 ff ff       	call   4011a0 <write@plt>
  402a54:	48 8d 3d f9 f6 00 00 	lea    rdi,[rip+0xf6f9]        # 412154 <_IO_stdin_used+0x154>
  402a5b:	e8 30 e7 ff ff       	call   401190 <puts@plt>
  402a60:	48 8d 3d 9d f5 00 00 	lea    rdi,[rip+0xf59d]        # 412004 <_IO_stdin_used+0x4>
  402a67:	31 f6                	xor    esi,esi
  402a69:	31 c0                	xor    eax,eax
  402a6b:	e8 e0 e7 ff ff       	call   401250 <open@plt>
  402a70:	89 c7                	mov    edi,eax
  402a72:	85 c0                	test   eax,eax
  402a74:	79 34                	jns    402aaa <win+0x1534>
  402a76:	e8 05 e7 ff ff       	call   401180 <__errno_location@plt>
  402a7b:	8b 38                	mov    edi,DWORD PTR [rax]
  402a7d:	e8 fe e7 ff ff       	call   401280 <strerror@plt>
  402a82:	48 8d 35 81 f5 00 00 	lea    rsi,[rip+0xf581]        # 41200a <_IO_stdin_used+0xa>
  402a89:	bf 01 00 00 00       	mov    edi,0x1
  402a8e:	48 89 c2             	mov    rdx,rax
  402a91:	31 c0                	xor    eax,eax
  402a93:	e8 98 e7 ff ff       	call   401230 <__printf_chk@plt>
  402a98:	e8 43 e7 ff ff       	call   4011e0 <geteuid@plt>
  402a9d:	85 c0                	test   eax,eax
  402a9f:	0f 84 34 eb ff ff    	je     4015d9 <win+0x63>
  402aa5:	e9 17 eb ff ff       	jmp    4015c1 <win+0x4b>
  402aaa:	ba 00 01 00 00       	mov    edx,0x100
  402aaf:	48 89 ee             	mov    rsi,rbp
  402ab2:	e8 49 e7 ff ff       	call   401200 <read@plt>
  402ab7:	85 c0                	test   eax,eax
  402ab9:	7f 2a                	jg     402ae5 <win+0x156f>
  402abb:	e8 c0 e6 ff ff       	call   401180 <__errno_location@plt>
  402ac0:	8b 38                	mov    edi,DWORD PTR [rax]
  402ac2:	e8 b9 e7 ff ff       	call   401280 <strerror@plt>
  402ac7:	bf 01 00 00 00       	mov    edi,0x1
  402acc:	48 8d 35 d6 f5 00 00 	lea    rsi,[rip+0xf5d6]        # 4120a9 <_IO_stdin_used+0xa9>
  402ad3:	48 89 c2             	mov    rdx,rax
  402ad6:	31 c0                	xor    eax,eax
  402ad8:	e8 53 e7 ff ff       	call   401230 <__printf_chk@plt>
  402add:	83 cf ff             	or     edi,0xffffffff
  402ae0:	e8 7b e7 ff ff       	call   401260 <exit@plt>
  402ae5:	48 63 d0             	movsxd rdx,eax
  402ae8:	48 89 ee             	mov    rsi,rbp
  402aeb:	bf 01 00 00 00       	mov    edi,0x1
  402af0:	e8 ab e6 ff ff       	call   4011a0 <write@plt>
  402af5:	48 8d 3d 58 f6 00 00 	lea    rdi,[rip+0xf658]        # 412154 <_IO_stdin_used+0x154>
  402afc:	e8 8f e6 ff ff       	call   401190 <puts@plt>
  402b01:	48 8d 3d fc f4 00 00 	lea    rdi,[rip+0xf4fc]        # 412004 <_IO_stdin_used+0x4>
  402b08:	31 f6                	xor    esi,esi
  402b0a:	31 c0                	xor    eax,eax
  402b0c:	e8 3f e7 ff ff       	call   401250 <open@plt>
  402b11:	89 c7                	mov    edi,eax
  402b13:	85 c0                	test   eax,eax
  402b15:	79 34                	jns    402b4b <win+0x15d5>
  402b17:	e8 64 e6 ff ff       	call   401180 <__errno_location@plt>
  402b1c:	8b 38                	mov    edi,DWORD PTR [rax]
  402b1e:	e8 5d e7 ff ff       	call   401280 <strerror@plt>
  402b23:	48 8d 35 e0 f4 00 00 	lea    rsi,[rip+0xf4e0]        # 41200a <_IO_stdin_used+0xa>
  402b2a:	bf 01 00 00 00       	mov    edi,0x1
  402b2f:	48 89 c2             	mov    rdx,rax
  402b32:	31 c0                	xor    eax,eax
  402b34:	e8 f7 e6 ff ff       	call   401230 <__printf_chk@plt>
  402b39:	e8 a2 e6 ff ff       	call   4011e0 <geteuid@plt>
  402b3e:	85 c0                	test   eax,eax
  402b40:	0f 84 93 ea ff ff    	je     4015d9 <win+0x63>
  402b46:	e9 76 ea ff ff       	jmp    4015c1 <win+0x4b>
  402b4b:	ba 00 01 00 00       	mov    edx,0x100
  402b50:	48 89 ee             	mov    rsi,rbp
  402b53:	e8 a8 e6 ff ff       	call   401200 <read@plt>
  402b58:	85 c0                	test   eax,eax
  402b5a:	7f 2a                	jg     402b86 <win+0x1610>
  402b5c:	e8 1f e6 ff ff       	call   401180 <__errno_location@plt>
  402b61:	8b 38                	mov    edi,DWORD PTR [rax]
  402b63:	e8 18 e7 ff ff       	call   401280 <strerror@plt>
  402b68:	bf 01 00 00 00       	mov    edi,0x1
  402b6d:	48 8d 35 35 f5 00 00 	lea    rsi,[rip+0xf535]        # 4120a9 <_IO_stdin_used+0xa9>
  402b74:	48 89 c2             	mov    rdx,rax
  402b77:	31 c0                	xor    eax,eax
  402b79:	e8 b2 e6 ff ff       	call   401230 <__printf_chk@plt>
  402b7e:	83 cf ff             	or     edi,0xffffffff
  402b81:	e8 da e6 ff ff       	call   401260 <exit@plt>
  402b86:	48 63 d0             	movsxd rdx,eax
  402b89:	48 89 ee             	mov    rsi,rbp
  402b8c:	bf 01 00 00 00       	mov    edi,0x1
  402b91:	e8 0a e6 ff ff       	call   4011a0 <write@plt>
  402b96:	48 8d 3d b7 f5 00 00 	lea    rdi,[rip+0xf5b7]        # 412154 <_IO_stdin_used+0x154>
  402b9d:	e8 ee e5 ff ff       	call   401190 <puts@plt>
  402ba2:	48 8d 3d 5b f4 00 00 	lea    rdi,[rip+0xf45b]        # 412004 <_IO_stdin_used+0x4>
  402ba9:	31 f6                	xor    esi,esi
  402bab:	31 c0                	xor    eax,eax
  402bad:	e8 9e e6 ff ff       	call   401250 <open@plt>
  402bb2:	89 c7                	mov    edi,eax
  402bb4:	85 c0                	test   eax,eax
  402bb6:	79 34                	jns    402bec <win+0x1676>
  402bb8:	e8 c3 e5 ff ff       	call   401180 <__errno_location@plt>
  402bbd:	8b 38                	mov    edi,DWORD PTR [rax]
  402bbf:	e8 bc e6 ff ff       	call   401280 <strerror@plt>
  402bc4:	48 8d 35 3f f4 00 00 	lea    rsi,[rip+0xf43f]        # 41200a <_IO_stdin_used+0xa>
  402bcb:	bf 01 00 00 00       	mov    edi,0x1
  402bd0:	48 89 c2             	mov    rdx,rax
  402bd3:	31 c0                	xor    eax,eax
  402bd5:	e8 56 e6 ff ff       	call   401230 <__printf_chk@plt>
  402bda:	e8 01 e6 ff ff       	call   4011e0 <geteuid@plt>
  402bdf:	85 c0                	test   eax,eax
  402be1:	0f 84 f2 e9 ff ff    	je     4015d9 <win+0x63>
  402be7:	e9 d5 e9 ff ff       	jmp    4015c1 <win+0x4b>
  402bec:	ba 00 01 00 00       	mov    edx,0x100
  402bf1:	48 89 ee             	mov    rsi,rbp
  402bf4:	e8 07 e6 ff ff       	call   401200 <read@plt>
  402bf9:	85 c0                	test   eax,eax
  402bfb:	7f 2a                	jg     402c27 <win+0x16b1>
  402bfd:	e8 7e e5 ff ff       	call   401180 <__errno_location@plt>
  402c02:	8b 38                	mov    edi,DWORD PTR [rax]
  402c04:	e8 77 e6 ff ff       	call   401280 <strerror@plt>
  402c09:	bf 01 00 00 00       	mov    edi,0x1
  402c0e:	48 8d 35 94 f4 00 00 	lea    rsi,[rip+0xf494]        # 4120a9 <_IO_stdin_used+0xa9>
  402c15:	48 89 c2             	mov    rdx,rax
  402c18:	31 c0                	xor    eax,eax
  402c1a:	e8 11 e6 ff ff       	call   401230 <__printf_chk@plt>
  402c1f:	83 cf ff             	or     edi,0xffffffff
  402c22:	e8 39 e6 ff ff       	call   401260 <exit@plt>
  402c27:	48 63 d0             	movsxd rdx,eax
  402c2a:	48 89 ee             	mov    rsi,rbp
  402c2d:	bf 01 00 00 00       	mov    edi,0x1
  402c32:	e8 69 e5 ff ff       	call   4011a0 <write@plt>
  402c37:	48 8d 3d 16 f5 00 00 	lea    rdi,[rip+0xf516]        # 412154 <_IO_stdin_used+0x154>
  402c3e:	e8 4d e5 ff ff       	call   401190 <puts@plt>
  402c43:	48 8d 3d ba f3 00 00 	lea    rdi,[rip+0xf3ba]        # 412004 <_IO_stdin_used+0x4>
  402c4a:	31 f6                	xor    esi,esi
  402c4c:	31 c0                	xor    eax,eax
  402c4e:	e8 fd e5 ff ff       	call   401250 <open@plt>
  402c53:	89 c7                	mov    edi,eax
  402c55:	85 c0                	test   eax,eax
  402c57:	79 34                	jns    402c8d <win+0x1717>
  402c59:	e8 22 e5 ff ff       	call   401180 <__errno_location@plt>
  402c5e:	8b 38                	mov    edi,DWORD PTR [rax]
  402c60:	e8 1b e6 ff ff       	call   401280 <strerror@plt>
  402c65:	48 8d 35 9e f3 00 00 	lea    rsi,[rip+0xf39e]        # 41200a <_IO_stdin_used+0xa>
  402c6c:	bf 01 00 00 00       	mov    edi,0x1
  402c71:	48 89 c2             	mov    rdx,rax
  402c74:	31 c0                	xor    eax,eax
  402c76:	e8 b5 e5 ff ff       	call   401230 <__printf_chk@plt>
  402c7b:	e8 60 e5 ff ff       	call   4011e0 <geteuid@plt>
  402c80:	85 c0                	test   eax,eax
  402c82:	0f 84 51 e9 ff ff    	je     4015d9 <win+0x63>
  402c88:	e9 34 e9 ff ff       	jmp    4015c1 <win+0x4b>
  402c8d:	ba 00 01 00 00       	mov    edx,0x100
  402c92:	48 89 ee             	mov    rsi,rbp
  402c95:	e8 66 e5 ff ff       	call   401200 <read@plt>
  402c9a:	85 c0                	test   eax,eax
  402c9c:	7f 2a                	jg     402cc8 <win+0x1752>
  402c9e:	e8 dd e4 ff ff       	call   401180 <__errno_location@plt>
  402ca3:	8b 38                	mov    edi,DWORD PTR [rax]
  402ca5:	e8 d6 e5 ff ff       	call   401280 <strerror@plt>
  402caa:	bf 01 00 00 00       	mov    edi,0x1
  402caf:	48 8d 35 f3 f3 00 00 	lea    rsi,[rip+0xf3f3]        # 4120a9 <_IO_stdin_used+0xa9>
  402cb6:	48 89 c2             	mov    rdx,rax
  402cb9:	31 c0                	xor    eax,eax
  402cbb:	e8 70 e5 ff ff       	call   401230 <__printf_chk@plt>
  402cc0:	83 cf ff             	or     edi,0xffffffff
  402cc3:	e8 98 e5 ff ff       	call   401260 <exit@plt>
  402cc8:	48 63 d0             	movsxd rdx,eax
  402ccb:	48 89 ee             	mov    rsi,rbp
  402cce:	bf 01 00 00 00       	mov    edi,0x1
  402cd3:	e8 c8 e4 ff ff       	call   4011a0 <write@plt>
  402cd8:	48 8d 3d 75 f4 00 00 	lea    rdi,[rip+0xf475]        # 412154 <_IO_stdin_used+0x154>
  402cdf:	e8 ac e4 ff ff       	call   401190 <puts@plt>
  402ce4:	48 8d 3d 19 f3 00 00 	lea    rdi,[rip+0xf319]        # 412004 <_IO_stdin_used+0x4>
  402ceb:	31 f6                	xor    esi,esi
  402ced:	31 c0                	xor    eax,eax
  402cef:	e8 5c e5 ff ff       	call   401250 <open@plt>
  402cf4:	89 c7                	mov    edi,eax
  402cf6:	85 c0                	test   eax,eax
  402cf8:	79 34                	jns    402d2e <win+0x17b8>
  402cfa:	e8 81 e4 ff ff       	call   401180 <__errno_location@plt>
  402cff:	8b 38                	mov    edi,DWORD PTR [rax]
  402d01:	e8 7a e5 ff ff       	call   401280 <strerror@plt>
  402d06:	48 8d 35 fd f2 00 00 	lea    rsi,[rip+0xf2fd]        # 41200a <_IO_stdin_used+0xa>
  402d0d:	bf 01 00 00 00       	mov    edi,0x1
  402d12:	48 89 c2             	mov    rdx,rax
  402d15:	31 c0                	xor    eax,eax
  402d17:	e8 14 e5 ff ff       	call   401230 <__printf_chk@plt>
  402d1c:	e8 bf e4 ff ff       	call   4011e0 <geteuid@plt>
  402d21:	85 c0                	test   eax,eax
  402d23:	0f 84 b0 e8 ff ff    	je     4015d9 <win+0x63>
  402d29:	e9 93 e8 ff ff       	jmp    4015c1 <win+0x4b>
  402d2e:	ba 00 01 00 00       	mov    edx,0x100
  402d33:	48 89 ee             	mov    rsi,rbp
  402d36:	e8 c5 e4 ff ff       	call   401200 <read@plt>
  402d3b:	85 c0                	test   eax,eax
  402d3d:	7f 2a                	jg     402d69 <win+0x17f3>
  402d3f:	e8 3c e4 ff ff       	call   401180 <__errno_location@plt>
  402d44:	8b 38                	mov    edi,DWORD PTR [rax]
  402d46:	e8 35 e5 ff ff       	call   401280 <strerror@plt>
  402d4b:	bf 01 00 00 00       	mov    edi,0x1
  402d50:	48 8d 35 52 f3 00 00 	lea    rsi,[rip+0xf352]        # 4120a9 <_IO_stdin_used+0xa9>
  402d57:	48 89 c2             	mov    rdx,rax
  402d5a:	31 c0                	xor    eax,eax
  402d5c:	e8 cf e4 ff ff       	call   401230 <__printf_chk@plt>
  402d61:	83 cf ff             	or     edi,0xffffffff
  402d64:	e8 f7 e4 ff ff       	call   401260 <exit@plt>
  402d69:	48 63 d0             	movsxd rdx,eax
  402d6c:	48 89 ee             	mov    rsi,rbp
  402d6f:	bf 01 00 00 00       	mov    edi,0x1
  402d74:	e8 27 e4 ff ff       	call   4011a0 <write@plt>
  402d79:	48 8d 3d d4 f3 00 00 	lea    rdi,[rip+0xf3d4]        # 412154 <_IO_stdin_used+0x154>
  402d80:	e8 0b e4 ff ff       	call   401190 <puts@plt>
  402d85:	48 8d 3d 78 f2 00 00 	lea    rdi,[rip+0xf278]        # 412004 <_IO_stdin_used+0x4>
  402d8c:	31 f6                	xor    esi,esi
  402d8e:	31 c0                	xor    eax,eax
  402d90:	e8 bb e4 ff ff       	call   401250 <open@plt>
  402d95:	89 c7                	mov    edi,eax
  402d97:	85 c0                	test   eax,eax
  402d99:	79 34                	jns    402dcf <win+0x1859>
  402d9b:	e8 e0 e3 ff ff       	call   401180 <__errno_location@plt>
  402da0:	8b 38                	mov    edi,DWORD PTR [rax]
  402da2:	e8 d9 e4 ff ff       	call   401280 <strerror@plt>
  402da7:	48 8d 35 5c f2 00 00 	lea    rsi,[rip+0xf25c]        # 41200a <_IO_stdin_used+0xa>
  402dae:	bf 01 00 00 00       	mov    edi,0x1
  402db3:	48 89 c2             	mov    rdx,rax
  402db6:	31 c0                	xor    eax,eax
  402db8:	e8 73 e4 ff ff       	call   401230 <__printf_chk@plt>
  402dbd:	e8 1e e4 ff ff       	call   4011e0 <geteuid@plt>
  402dc2:	85 c0                	test   eax,eax
  402dc4:	0f 84 0f e8 ff ff    	je     4015d9 <win+0x63>
  402dca:	e9 f2 e7 ff ff       	jmp    4015c1 <win+0x4b>
  402dcf:	ba 00 01 00 00       	mov    edx,0x100
  402dd4:	48 89 ee             	mov    rsi,rbp
  402dd7:	e8 24 e4 ff ff       	call   401200 <read@plt>
  402ddc:	85 c0                	test   eax,eax
  402dde:	7f 2a                	jg     402e0a <win+0x1894>
  402de0:	e8 9b e3 ff ff       	call   401180 <__errno_location@plt>
  402de5:	8b 38                	mov    edi,DWORD PTR [rax]
  402de7:	e8 94 e4 ff ff       	call   401280 <strerror@plt>
  402dec:	bf 01 00 00 00       	mov    edi,0x1
  402df1:	48 8d 35 b1 f2 00 00 	lea    rsi,[rip+0xf2b1]        # 4120a9 <_IO_stdin_used+0xa9>
  402df8:	48 89 c2             	mov    rdx,rax
  402dfb:	31 c0                	xor    eax,eax
  402dfd:	e8 2e e4 ff ff       	call   401230 <__printf_chk@plt>
  402e02:	83 cf ff             	or     edi,0xffffffff
  402e05:	e8 56 e4 ff ff       	call   401260 <exit@plt>
  402e0a:	48 63 d0             	movsxd rdx,eax
  402e0d:	48 89 ee             	mov    rsi,rbp
  402e10:	bf 01 00 00 00       	mov    edi,0x1
  402e15:	e8 86 e3 ff ff       	call   4011a0 <write@plt>
  402e1a:	48 8d 3d 33 f3 00 00 	lea    rdi,[rip+0xf333]        # 412154 <_IO_stdin_used+0x154>
  402e21:	e8 6a e3 ff ff       	call   401190 <puts@plt>
  402e26:	48 8d 3d d7 f1 00 00 	lea    rdi,[rip+0xf1d7]        # 412004 <_IO_stdin_used+0x4>
  402e2d:	31 f6                	xor    esi,esi
  402e2f:	31 c0                	xor    eax,eax
  402e31:	e8 1a e4 ff ff       	call   401250 <open@plt>
  402e36:	89 c7                	mov    edi,eax
  402e38:	85 c0                	test   eax,eax
  402e3a:	79 34                	jns    402e70 <win+0x18fa>
  402e3c:	e8 3f e3 ff ff       	call   401180 <__errno_location@plt>
  402e41:	8b 38                	mov    edi,DWORD PTR [rax]
  402e43:	e8 38 e4 ff ff       	call   401280 <strerror@plt>
  402e48:	48 8d 35 bb f1 00 00 	lea    rsi,[rip+0xf1bb]        # 41200a <_IO_stdin_used+0xa>
  402e4f:	bf 01 00 00 00       	mov    edi,0x1
  402e54:	48 89 c2             	mov    rdx,rax
  402e57:	31 c0                	xor    eax,eax
  402e59:	e8 d2 e3 ff ff       	call   401230 <__printf_chk@plt>
  402e5e:	e8 7d e3 ff ff       	call   4011e0 <geteuid@plt>
  402e63:	85 c0                	test   eax,eax
  402e65:	0f 84 6e e7 ff ff    	je     4015d9 <win+0x63>
  402e6b:	e9 51 e7 ff ff       	jmp    4015c1 <win+0x4b>
  402e70:	ba 00 01 00 00       	mov    edx,0x100
  402e75:	48 89 ee             	mov    rsi,rbp
  402e78:	e8 83 e3 ff ff       	call   401200 <read@plt>
  402e7d:	85 c0                	test   eax,eax
  402e7f:	7f 2a                	jg     402eab <win+0x1935>
  402e81:	e8 fa e2 ff ff       	call   401180 <__errno_location@plt>
  402e86:	8b 38                	mov    edi,DWORD PTR [rax]
  402e88:	e8 f3 e3 ff ff       	call   401280 <strerror@plt>
  402e8d:	bf 01 00 00 00       	mov    edi,0x1
  402e92:	48 8d 35 10 f2 00 00 	lea    rsi,[rip+0xf210]        # 4120a9 <_IO_stdin_used+0xa9>
  402e99:	48 89 c2             	mov    rdx,rax
  402e9c:	31 c0                	xor    eax,eax
  402e9e:	e8 8d e3 ff ff       	call   401230 <__printf_chk@plt>
  402ea3:	83 cf ff             	or     edi,0xffffffff
  402ea6:	e8 b5 e3 ff ff       	call   401260 <exit@plt>
  402eab:	48 89 e5             	mov    rbp,rsp
  402eae:	48 63 d0             	movsxd rdx,eax
  402eb1:	bf 01 00 00 00       	mov    edi,0x1
  402eb6:	48 89 ee             	mov    rsi,rbp
  402eb9:	e8 e2 e2 ff ff       	call   4011a0 <write@plt>
  402ebe:	48 8d 3d 8f f2 00 00 	lea    rdi,[rip+0xf28f]        # 412154 <_IO_stdin_used+0x154>
  402ec5:	e8 c6 e2 ff ff       	call   401190 <puts@plt>
  402eca:	48 8d 3d 33 f1 00 00 	lea    rdi,[rip+0xf133]        # 412004 <_IO_stdin_used+0x4>
  402ed1:	31 f6                	xor    esi,esi
  402ed3:	31 c0                	xor    eax,eax
  402ed5:	e8 76 e3 ff ff       	call   401250 <open@plt>
  402eda:	89 c7                	mov    edi,eax
  402edc:	85 c0                	test   eax,eax
  402ede:	79 34                	jns    402f14 <win+0x199e>
  402ee0:	e8 9b e2 ff ff       	call   401180 <__errno_location@plt>
  402ee5:	8b 38                	mov    edi,DWORD PTR [rax]
  402ee7:	e8 94 e3 ff ff       	call   401280 <strerror@plt>
  402eec:	48 8d 35 17 f1 00 00 	lea    rsi,[rip+0xf117]        # 41200a <_IO_stdin_used+0xa>
  402ef3:	bf 01 00 00 00       	mov    edi,0x1
  402ef8:	48 89 c2             	mov    rdx,rax
  402efb:	31 c0                	xor    eax,eax
  402efd:	e8 2e e3 ff ff       	call   401230 <__printf_chk@plt>
  402f02:	e8 d9 e2 ff ff       	call   4011e0 <geteuid@plt>
  402f07:	85 c0                	test   eax,eax
  402f09:	0f 84 ca e6 ff ff    	je     4015d9 <win+0x63>
  402f0f:	e9 ad e6 ff ff       	jmp    4015c1 <win+0x4b>
  402f14:	ba 00 01 00 00       	mov    edx,0x100
  402f19:	48 89 ee             	mov    rsi,rbp
  402f1c:	e8 df e2 ff ff       	call   401200 <read@plt>
  402f21:	85 c0                	test   eax,eax
  402f23:	7f 2a                	jg     402f4f <win+0x19d9>
  402f25:	e8 56 e2 ff ff       	call   401180 <__errno_location@plt>
  402f2a:	8b 38                	mov    edi,DWORD PTR [rax]
  402f2c:	e8 4f e3 ff ff       	call   401280 <strerror@plt>
  402f31:	bf 01 00 00 00       	mov    edi,0x1
  402f36:	48 8d 35 6c f1 00 00 	lea    rsi,[rip+0xf16c]        # 4120a9 <_IO_stdin_used+0xa9>
  402f3d:	48 89 c2             	mov    rdx,rax
  402f40:	31 c0                	xor    eax,eax
  402f42:	e8 e9 e2 ff ff       	call   401230 <__printf_chk@plt>
  402f47:	83 cf ff             	or     edi,0xffffffff
  402f4a:	e8 11 e3 ff ff       	call   401260 <exit@plt>
  402f4f:	48 63 d0             	movsxd rdx,eax
  402f52:	48 89 ee             	mov    rsi,rbp
  402f55:	bf 01 00 00 00       	mov    edi,0x1
  402f5a:	e8 41 e2 ff ff       	call   4011a0 <write@plt>
  402f5f:	48 8d 3d ee f1 00 00 	lea    rdi,[rip+0xf1ee]        # 412154 <_IO_stdin_used+0x154>
  402f66:	e8 25 e2 ff ff       	call   401190 <puts@plt>
  402f6b:	48 8d 3d 92 f0 00 00 	lea    rdi,[rip+0xf092]        # 412004 <_IO_stdin_used+0x4>
  402f72:	31 f6                	xor    esi,esi
  402f74:	31 c0                	xor    eax,eax
  402f76:	e8 d5 e2 ff ff       	call   401250 <open@plt>
  402f7b:	89 c7                	mov    edi,eax
  402f7d:	85 c0                	test   eax,eax
  402f7f:	79 34                	jns    402fb5 <win+0x1a3f>
  402f81:	e8 fa e1 ff ff       	call   401180 <__errno_location@plt>
  402f86:	8b 38                	mov    edi,DWORD PTR [rax]
  402f88:	e8 f3 e2 ff ff       	call   401280 <strerror@plt>
  402f8d:	48 8d 35 76 f0 00 00 	lea    rsi,[rip+0xf076]        # 41200a <_IO_stdin_used+0xa>
  402f94:	bf 01 00 00 00       	mov    edi,0x1
  402f99:	48 89 c2             	mov    rdx,rax
  402f9c:	31 c0                	xor    eax,eax
  402f9e:	e8 8d e2 ff ff       	call   401230 <__printf_chk@plt>
  402fa3:	e8 38 e2 ff ff       	call   4011e0 <geteuid@plt>
  402fa8:	85 c0                	test   eax,eax
  402faa:	0f 84 29 e6 ff ff    	je     4015d9 <win+0x63>
  402fb0:	e9 0c e6 ff ff       	jmp    4015c1 <win+0x4b>
  402fb5:	ba 00 01 00 00       	mov    edx,0x100
  402fba:	48 89 ee             	mov    rsi,rbp
  402fbd:	e8 3e e2 ff ff       	call   401200 <read@plt>
  402fc2:	85 c0                	test   eax,eax
  402fc4:	7f 2a                	jg     402ff0 <win+0x1a7a>
  402fc6:	e8 b5 e1 ff ff       	call   401180 <__errno_location@plt>
  402fcb:	8b 38                	mov    edi,DWORD PTR [rax]
  402fcd:	e8 ae e2 ff ff       	call   401280 <strerror@plt>
  402fd2:	bf 01 00 00 00       	mov    edi,0x1
  402fd7:	48 8d 35 cb f0 00 00 	lea    rsi,[rip+0xf0cb]        # 4120a9 <_IO_stdin_used+0xa9>
  402fde:	48 89 c2             	mov    rdx,rax
  402fe1:	31 c0                	xor    eax,eax
  402fe3:	e8 48 e2 ff ff       	call   401230 <__printf_chk@plt>
  402fe8:	83 cf ff             	or     edi,0xffffffff
  402feb:	e8 70 e2 ff ff       	call   401260 <exit@plt>
  402ff0:	48 63 d0             	movsxd rdx,eax
  402ff3:	48 89 ee             	mov    rsi,rbp
  402ff6:	bf 01 00 00 00       	mov    edi,0x1
  402ffb:	e8 a0 e1 ff ff       	call   4011a0 <write@plt>
  403000:	48 8d 3d 4d f1 00 00 	lea    rdi,[rip+0xf14d]        # 412154 <_IO_stdin_used+0x154>
  403007:	e8 84 e1 ff ff       	call   401190 <puts@plt>
  40300c:	48 8d 3d f1 ef 00 00 	lea    rdi,[rip+0xeff1]        # 412004 <_IO_stdin_used+0x4>
  403013:	31 f6                	xor    esi,esi
  403015:	31 c0                	xor    eax,eax
  403017:	e8 34 e2 ff ff       	call   401250 <open@plt>
  40301c:	89 c7                	mov    edi,eax
  40301e:	85 c0                	test   eax,eax
  403020:	79 34                	jns    403056 <win+0x1ae0>
  403022:	e8 59 e1 ff ff       	call   401180 <__errno_location@plt>
  403027:	8b 38                	mov    edi,DWORD PTR [rax]
  403029:	e8 52 e2 ff ff       	call   401280 <strerror@plt>
  40302e:	48 8d 35 d5 ef 00 00 	lea    rsi,[rip+0xefd5]        # 41200a <_IO_stdin_used+0xa>
  403035:	bf 01 00 00 00       	mov    edi,0x1
  40303a:	48 89 c2             	mov    rdx,rax
  40303d:	31 c0                	xor    eax,eax
  40303f:	e8 ec e1 ff ff       	call   401230 <__printf_chk@plt>
  403044:	e8 97 e1 ff ff       	call   4011e0 <geteuid@plt>
  403049:	85 c0                	test   eax,eax
  40304b:	0f 84 88 e5 ff ff    	je     4015d9 <win+0x63>
  403051:	e9 6b e5 ff ff       	jmp    4015c1 <win+0x4b>
  403056:	ba 00 01 00 00       	mov    edx,0x100
  40305b:	48 89 ee             	mov    rsi,rbp
  40305e:	e8 9d e1 ff ff       	call   401200 <read@plt>
  403063:	85 c0                	test   eax,eax
  403065:	7f 2a                	jg     403091 <win+0x1b1b>
  403067:	e8 14 e1 ff ff       	call   401180 <__errno_location@plt>
  40306c:	8b 38                	mov    edi,DWORD PTR [rax]
  40306e:	e8 0d e2 ff ff       	call   401280 <strerror@plt>
  403073:	bf 01 00 00 00       	mov    edi,0x1
  403078:	48 8d 35 2a f0 00 00 	lea    rsi,[rip+0xf02a]        # 4120a9 <_IO_stdin_used+0xa9>
  40307f:	48 89 c2             	mov    rdx,rax
  403082:	31 c0                	xor    eax,eax
  403084:	e8 a7 e1 ff ff       	call   401230 <__printf_chk@plt>
  403089:	83 cf ff             	or     edi,0xffffffff
  40308c:	e8 cf e1 ff ff       	call   401260 <exit@plt>
  403091:	48 63 d0             	movsxd rdx,eax
  403094:	48 89 ee             	mov    rsi,rbp
  403097:	bf 01 00 00 00       	mov    edi,0x1
  40309c:	e8 ff e0 ff ff       	call   4011a0 <write@plt>
  4030a1:	48 8d 3d ac f0 00 00 	lea    rdi,[rip+0xf0ac]        # 412154 <_IO_stdin_used+0x154>
  4030a8:	e8 e3 e0 ff ff       	call   401190 <puts@plt>
  4030ad:	48 8d 3d 50 ef 00 00 	lea    rdi,[rip+0xef50]        # 412004 <_IO_stdin_used+0x4>
  4030b4:	31 f6                	xor    esi,esi
  4030b6:	31 c0                	xor    eax,eax
  4030b8:	e8 93 e1 ff ff       	call   401250 <open@plt>
  4030bd:	89 c7                	mov    edi,eax
  4030bf:	85 c0                	test   eax,eax
  4030c1:	79 34                	jns    4030f7 <win+0x1b81>
  4030c3:	e8 b8 e0 ff ff       	call   401180 <__errno_location@plt>
  4030c8:	8b 38                	mov    edi,DWORD PTR [rax]
  4030ca:	e8 b1 e1 ff ff       	call   401280 <strerror@plt>
  4030cf:	48 8d 35 34 ef 00 00 	lea    rsi,[rip+0xef34]        # 41200a <_IO_stdin_used+0xa>
  4030d6:	bf 01 00 00 00       	mov    edi,0x1
  4030db:	48 89 c2             	mov    rdx,rax
  4030de:	31 c0                	xor    eax,eax
  4030e0:	e8 4b e1 ff ff       	call   401230 <__printf_chk@plt>
  4030e5:	e8 f6 e0 ff ff       	call   4011e0 <geteuid@plt>
  4030ea:	85 c0                	test   eax,eax
  4030ec:	0f 84 e7 e4 ff ff    	je     4015d9 <win+0x63>
  4030f2:	e9 ca e4 ff ff       	jmp    4015c1 <win+0x4b>
  4030f7:	ba 00 01 00 00       	mov    edx,0x100
  4030fc:	48 89 ee             	mov    rsi,rbp
  4030ff:	e8 fc e0 ff ff       	call   401200 <read@plt>
  403104:	85 c0                	test   eax,eax
  403106:	7f 2a                	jg     403132 <win+0x1bbc>
  403108:	e8 73 e0 ff ff       	call   401180 <__errno_location@plt>
  40310d:	8b 38                	mov    edi,DWORD PTR [rax]
  40310f:	e8 6c e1 ff ff       	call   401280 <strerror@plt>
  403114:	bf 01 00 00 00       	mov    edi,0x1
  403119:	48 8d 35 89 ef 00 00 	lea    rsi,[rip+0xef89]        # 4120a9 <_IO_stdin_used+0xa9>
  403120:	48 89 c2             	mov    rdx,rax
  403123:	31 c0                	xor    eax,eax
  403125:	e8 06 e1 ff ff       	call   401230 <__printf_chk@plt>
  40312a:	83 cf ff             	or     edi,0xffffffff
  40312d:	e8 2e e1 ff ff       	call   401260 <exit@plt>
  403132:	48 63 d0             	movsxd rdx,eax
  403135:	48 89 ee             	mov    rsi,rbp
  403138:	bf 01 00 00 00       	mov    edi,0x1
  40313d:	e8 5e e0 ff ff       	call   4011a0 <write@plt>
  403142:	48 8d 3d 0b f0 00 00 	lea    rdi,[rip+0xf00b]        # 412154 <_IO_stdin_used+0x154>
  403149:	e8 42 e0 ff ff       	call   401190 <puts@plt>
  40314e:	48 8d 3d af ee 00 00 	lea    rdi,[rip+0xeeaf]        # 412004 <_IO_stdin_used+0x4>
  403155:	31 f6                	xor    esi,esi
  403157:	31 c0                	xor    eax,eax
  403159:	e8 f2 e0 ff ff       	call   401250 <open@plt>
  40315e:	89 c7                	mov    edi,eax
  403160:	85 c0                	test   eax,eax
  403162:	79 34                	jns    403198 <win+0x1c22>
  403164:	e8 17 e0 ff ff       	call   401180 <__errno_location@plt>
  403169:	8b 38                	mov    edi,DWORD PTR [rax]
  40316b:	e8 10 e1 ff ff       	call   401280 <strerror@plt>
  403170:	48 8d 35 93 ee 00 00 	lea    rsi,[rip+0xee93]        # 41200a <_IO_stdin_used+0xa>
  403177:	bf 01 00 00 00       	mov    edi,0x1
  40317c:	48 89 c2             	mov    rdx,rax
  40317f:	31 c0                	xor    eax,eax
  403181:	e8 aa e0 ff ff       	call   401230 <__printf_chk@plt>
  403186:	e8 55 e0 ff ff       	call   4011e0 <geteuid@plt>
  40318b:	85 c0                	test   eax,eax
  40318d:	0f 84 46 e4 ff ff    	je     4015d9 <win+0x63>
  403193:	e9 29 e4 ff ff       	jmp    4015c1 <win+0x4b>
  403198:	ba 00 01 00 00       	mov    edx,0x100
  40319d:	48 89 ee             	mov    rsi,rbp
  4031a0:	e8 5b e0 ff ff       	call   401200 <read@plt>
  4031a5:	85 c0                	test   eax,eax
  4031a7:	7f 2a                	jg     4031d3 <win+0x1c5d>
  4031a9:	e8 d2 df ff ff       	call   401180 <__errno_location@plt>
  4031ae:	8b 38                	mov    edi,DWORD PTR [rax]
  4031b0:	e8 cb e0 ff ff       	call   401280 <strerror@plt>
  4031b5:	bf 01 00 00 00       	mov    edi,0x1
  4031ba:	48 8d 35 e8 ee 00 00 	lea    rsi,[rip+0xeee8]        # 4120a9 <_IO_stdin_used+0xa9>
  4031c1:	48 89 c2             	mov    rdx,rax
  4031c4:	31 c0                	xor    eax,eax
  4031c6:	e8 65 e0 ff ff       	call   401230 <__printf_chk@plt>
  4031cb:	83 cf ff             	or     edi,0xffffffff
  4031ce:	e8 8d e0 ff ff       	call   401260 <exit@plt>
  4031d3:	48 63 d0             	movsxd rdx,eax
  4031d6:	48 89 ee             	mov    rsi,rbp
  4031d9:	bf 01 00 00 00       	mov    edi,0x1
  4031de:	e8 bd df ff ff       	call   4011a0 <write@plt>
  4031e3:	48 8d 3d 6a ef 00 00 	lea    rdi,[rip+0xef6a]        # 412154 <_IO_stdin_used+0x154>
  4031ea:	e8 a1 df ff ff       	call   401190 <puts@plt>
  4031ef:	48 8d 3d 0e ee 00 00 	lea    rdi,[rip+0xee0e]        # 412004 <_IO_stdin_used+0x4>
  4031f6:	31 f6                	xor    esi,esi
  4031f8:	31 c0                	xor    eax,eax
  4031fa:	e8 51 e0 ff ff       	call   401250 <open@plt>
  4031ff:	89 c7                	mov    edi,eax
  403201:	85 c0                	test   eax,eax
  403203:	79 34                	jns    403239 <win+0x1cc3>
  403205:	e8 76 df ff ff       	call   401180 <__errno_location@plt>
  40320a:	8b 38                	mov    edi,DWORD PTR [rax]
  40320c:	e8 6f e0 ff ff       	call   401280 <strerror@plt>
  403211:	48 8d 35 f2 ed 00 00 	lea    rsi,[rip+0xedf2]        # 41200a <_IO_stdin_used+0xa>
  403218:	bf 01 00 00 00       	mov    edi,0x1
  40321d:	48 89 c2             	mov    rdx,rax
  403220:	31 c0                	xor    eax,eax
  403222:	e8 09 e0 ff ff       	call   401230 <__printf_chk@plt>
  403227:	e8 b4 df ff ff       	call   4011e0 <geteuid@plt>
  40322c:	85 c0                	test   eax,eax
  40322e:	0f 84 a5 e3 ff ff    	je     4015d9 <win+0x63>
  403234:	e9 88 e3 ff ff       	jmp    4015c1 <win+0x4b>
  403239:	ba 00 01 00 00       	mov    edx,0x100
  40323e:	48 89 ee             	mov    rsi,rbp
  403241:	e8 ba df ff ff       	call   401200 <read@plt>
  403246:	85 c0                	test   eax,eax
  403248:	7f 2a                	jg     403274 <win+0x1cfe>
  40324a:	e8 31 df ff ff       	call   401180 <__errno_location@plt>
  40324f:	8b 38                	mov    edi,DWORD PTR [rax]
  403251:	e8 2a e0 ff ff       	call   401280 <strerror@plt>
  403256:	bf 01 00 00 00       	mov    edi,0x1
  40325b:	48 8d 35 47 ee 00 00 	lea    rsi,[rip+0xee47]        # 4120a9 <_IO_stdin_used+0xa9>
  403262:	48 89 c2             	mov    rdx,rax
  403265:	31 c0                	xor    eax,eax
  403267:	e8 c4 df ff ff       	call   401230 <__printf_chk@plt>
  40326c:	83 cf ff             	or     edi,0xffffffff
  40326f:	e8 ec df ff ff       	call   401260 <exit@plt>
  403274:	48 63 d0             	movsxd rdx,eax
  403277:	48 89 ee             	mov    rsi,rbp
  40327a:	bf 01 00 00 00       	mov    edi,0x1
  40327f:	e8 1c df ff ff       	call   4011a0 <write@plt>
  403284:	48 8d 3d c9 ee 00 00 	lea    rdi,[rip+0xeec9]        # 412154 <_IO_stdin_used+0x154>
  40328b:	e8 00 df ff ff       	call   401190 <puts@plt>
  403290:	48 8d 3d 6d ed 00 00 	lea    rdi,[rip+0xed6d]        # 412004 <_IO_stdin_used+0x4>
  403297:	31 f6                	xor    esi,esi
  403299:	31 c0                	xor    eax,eax
  40329b:	e8 b0 df ff ff       	call   401250 <open@plt>
  4032a0:	89 c7                	mov    edi,eax
  4032a2:	85 c0                	test   eax,eax
  4032a4:	79 34                	jns    4032da <win+0x1d64>
  4032a6:	e8 d5 de ff ff       	call   401180 <__errno_location@plt>
  4032ab:	8b 38                	mov    edi,DWORD PTR [rax]
  4032ad:	e8 ce df ff ff       	call   401280 <strerror@plt>
  4032b2:	48 8d 35 51 ed 00 00 	lea    rsi,[rip+0xed51]        # 41200a <_IO_stdin_used+0xa>
  4032b9:	bf 01 00 00 00       	mov    edi,0x1
  4032be:	48 89 c2             	mov    rdx,rax
  4032c1:	31 c0                	xor    eax,eax
  4032c3:	e8 68 df ff ff       	call   401230 <__printf_chk@plt>
  4032c8:	e8 13 df ff ff       	call   4011e0 <geteuid@plt>
  4032cd:	85 c0                	test   eax,eax
  4032cf:	0f 84 04 e3 ff ff    	je     4015d9 <win+0x63>
  4032d5:	e9 e7 e2 ff ff       	jmp    4015c1 <win+0x4b>
  4032da:	ba 00 01 00 00       	mov    edx,0x100
  4032df:	48 89 ee             	mov    rsi,rbp
  4032e2:	e8 19 df ff ff       	call   401200 <read@plt>
  4032e7:	85 c0                	test   eax,eax
  4032e9:	7f 2a                	jg     403315 <win+0x1d9f>
  4032eb:	e8 90 de ff ff       	call   401180 <__errno_location@plt>
  4032f0:	8b 38                	mov    edi,DWORD PTR [rax]
  4032f2:	e8 89 df ff ff       	call   401280 <strerror@plt>
  4032f7:	bf 01 00 00 00       	mov    edi,0x1
  4032fc:	48 8d 35 a6 ed 00 00 	lea    rsi,[rip+0xeda6]        # 4120a9 <_IO_stdin_used+0xa9>
  403303:	48 89 c2             	mov    rdx,rax
  403306:	31 c0                	xor    eax,eax
  403308:	e8 23 df ff ff       	call   401230 <__printf_chk@plt>
  40330d:	83 cf ff             	or     edi,0xffffffff
  403310:	e8 4b df ff ff       	call   401260 <exit@plt>
  403315:	48 63 d0             	movsxd rdx,eax
  403318:	48 89 ee             	mov    rsi,rbp
  40331b:	bf 01 00 00 00       	mov    edi,0x1
  403320:	e8 7b de ff ff       	call   4011a0 <write@plt>
  403325:	48 8d 3d 28 ee 00 00 	lea    rdi,[rip+0xee28]        # 412154 <_IO_stdin_used+0x154>
  40332c:	e8 5f de ff ff       	call   401190 <puts@plt>
  403331:	48 8d 3d cc ec 00 00 	lea    rdi,[rip+0xeccc]        # 412004 <_IO_stdin_used+0x4>
  403338:	31 f6                	xor    esi,esi
  40333a:	31 c0                	xor    eax,eax
  40333c:	e8 0f df ff ff       	call   401250 <open@plt>
  403341:	89 c7                	mov    edi,eax
  403343:	85 c0                	test   eax,eax
  403345:	79 34                	jns    40337b <win+0x1e05>
  403347:	e8 34 de ff ff       	call   401180 <__errno_location@plt>
  40334c:	8b 38                	mov    edi,DWORD PTR [rax]
  40334e:	e8 2d df ff ff       	call   401280 <strerror@plt>
  403353:	48 8d 35 b0 ec 00 00 	lea    rsi,[rip+0xecb0]        # 41200a <_IO_stdin_used+0xa>
  40335a:	bf 01 00 00 00       	mov    edi,0x1
  40335f:	48 89 c2             	mov    rdx,rax
  403362:	31 c0                	xor    eax,eax
  403364:	e8 c7 de ff ff       	call   401230 <__printf_chk@plt>
  403369:	e8 72 de ff ff       	call   4011e0 <geteuid@plt>
  40336e:	85 c0                	test   eax,eax
  403370:	0f 84 63 e2 ff ff    	je     4015d9 <win+0x63>
  403376:	e9 46 e2 ff ff       	jmp    4015c1 <win+0x4b>
  40337b:	ba 00 01 00 00       	mov    edx,0x100
  403380:	48 89 ee             	mov    rsi,rbp
  403383:	e8 78 de ff ff       	call   401200 <read@plt>
  403388:	85 c0                	test   eax,eax
  40338a:	7f 2a                	jg     4033b6 <win+0x1e40>
  40338c:	e8 ef dd ff ff       	call   401180 <__errno_location@plt>
  403391:	8b 38                	mov    edi,DWORD PTR [rax]
  403393:	e8 e8 de ff ff       	call   401280 <strerror@plt>
  403398:	bf 01 00 00 00       	mov    edi,0x1
  40339d:	48 8d 35 05 ed 00 00 	lea    rsi,[rip+0xed05]        # 4120a9 <_IO_stdin_used+0xa9>
  4033a4:	48 89 c2             	mov    rdx,rax
  4033a7:	31 c0                	xor    eax,eax
  4033a9:	e8 82 de ff ff       	call   401230 <__printf_chk@plt>
  4033ae:	83 cf ff             	or     edi,0xffffffff
  4033b1:	e8 aa de ff ff       	call   401260 <exit@plt>
  4033b6:	48 63 d0             	movsxd rdx,eax
  4033b9:	48 89 ee             	mov    rsi,rbp
  4033bc:	bf 01 00 00 00       	mov    edi,0x1
  4033c1:	e8 da dd ff ff       	call   4011a0 <write@plt>
  4033c6:	48 8d 3d 87 ed 00 00 	lea    rdi,[rip+0xed87]        # 412154 <_IO_stdin_used+0x154>
  4033cd:	e8 be dd ff ff       	call   401190 <puts@plt>
  4033d2:	48 8d 3d 2b ec 00 00 	lea    rdi,[rip+0xec2b]        # 412004 <_IO_stdin_used+0x4>
  4033d9:	31 f6                	xor    esi,esi
  4033db:	31 c0                	xor    eax,eax
  4033dd:	e8 6e de ff ff       	call   401250 <open@plt>
  4033e2:	89 c7                	mov    edi,eax
  4033e4:	85 c0                	test   eax,eax
  4033e6:	79 34                	jns    40341c <win+0x1ea6>
  4033e8:	e8 93 dd ff ff       	call   401180 <__errno_location@plt>
  4033ed:	8b 38                	mov    edi,DWORD PTR [rax]
  4033ef:	e8 8c de ff ff       	call   401280 <strerror@plt>
  4033f4:	48 8d 35 0f ec 00 00 	lea    rsi,[rip+0xec0f]        # 41200a <_IO_stdin_used+0xa>
  4033fb:	bf 01 00 00 00       	mov    edi,0x1
  403400:	48 89 c2             	mov    rdx,rax
  403403:	31 c0                	xor    eax,eax
  403405:	e8 26 de ff ff       	call   401230 <__printf_chk@plt>
  40340a:	e8 d1 dd ff ff       	call   4011e0 <geteuid@plt>
  40340f:	85 c0                	test   eax,eax
  403411:	0f 84 c2 e1 ff ff    	je     4015d9 <win+0x63>
  403417:	e9 a5 e1 ff ff       	jmp    4015c1 <win+0x4b>
  40341c:	ba 00 01 00 00       	mov    edx,0x100
  403421:	48 89 ee             	mov    rsi,rbp
  403424:	e8 d7 dd ff ff       	call   401200 <read@plt>
  403429:	85 c0                	test   eax,eax
  40342b:	7f 2a                	jg     403457 <win+0x1ee1>
  40342d:	e8 4e dd ff ff       	call   401180 <__errno_location@plt>
  403432:	8b 38                	mov    edi,DWORD PTR [rax]
  403434:	e8 47 de ff ff       	call   401280 <strerror@plt>
  403439:	bf 01 00 00 00       	mov    edi,0x1
  40343e:	48 8d 35 64 ec 00 00 	lea    rsi,[rip+0xec64]        # 4120a9 <_IO_stdin_used+0xa9>
  403445:	48 89 c2             	mov    rdx,rax
  403448:	31 c0                	xor    eax,eax
  40344a:	e8 e1 dd ff ff       	call   401230 <__printf_chk@plt>
  40344f:	83 cf ff             	or     edi,0xffffffff
  403452:	e8 09 de ff ff       	call   401260 <exit@plt>
  403457:	48 63 d0             	movsxd rdx,eax
  40345a:	48 89 ee             	mov    rsi,rbp
  40345d:	bf 01 00 00 00       	mov    edi,0x1
  403462:	e8 39 dd ff ff       	call   4011a0 <write@plt>
  403467:	48 8d 3d e6 ec 00 00 	lea    rdi,[rip+0xece6]        # 412154 <_IO_stdin_used+0x154>
  40346e:	e8 1d dd ff ff       	call   401190 <puts@plt>
  403473:	48 8d 3d 8a eb 00 00 	lea    rdi,[rip+0xeb8a]        # 412004 <_IO_stdin_used+0x4>
  40347a:	31 f6                	xor    esi,esi
  40347c:	31 c0                	xor    eax,eax
  40347e:	e8 cd dd ff ff       	call   401250 <open@plt>
  403483:	89 c7                	mov    edi,eax
  403485:	85 c0                	test   eax,eax
  403487:	79 34                	jns    4034bd <win+0x1f47>
  403489:	e8 f2 dc ff ff       	call   401180 <__errno_location@plt>
  40348e:	8b 38                	mov    edi,DWORD PTR [rax]
  403490:	e8 eb dd ff ff       	call   401280 <strerror@plt>
  403495:	48 8d 35 6e eb 00 00 	lea    rsi,[rip+0xeb6e]        # 41200a <_IO_stdin_used+0xa>
  40349c:	bf 01 00 00 00       	mov    edi,0x1
  4034a1:	48 89 c2             	mov    rdx,rax
  4034a4:	31 c0                	xor    eax,eax
  4034a6:	e8 85 dd ff ff       	call   401230 <__printf_chk@plt>
  4034ab:	e8 30 dd ff ff       	call   4011e0 <geteuid@plt>
  4034b0:	85 c0                	test   eax,eax
  4034b2:	0f 84 21 e1 ff ff    	je     4015d9 <win+0x63>
  4034b8:	e9 04 e1 ff ff       	jmp    4015c1 <win+0x4b>
  4034bd:	ba 00 01 00 00       	mov    edx,0x100
  4034c2:	48 89 ee             	mov    rsi,rbp
  4034c5:	e8 36 dd ff ff       	call   401200 <read@plt>
  4034ca:	85 c0                	test   eax,eax
  4034cc:	7f 2a                	jg     4034f8 <win+0x1f82>
  4034ce:	e8 ad dc ff ff       	call   401180 <__errno_location@plt>
  4034d3:	8b 38                	mov    edi,DWORD PTR [rax]
  4034d5:	e8 a6 dd ff ff       	call   401280 <strerror@plt>
  4034da:	bf 01 00 00 00       	mov    edi,0x1
  4034df:	48 8d 35 c3 eb 00 00 	lea    rsi,[rip+0xebc3]        # 4120a9 <_IO_stdin_used+0xa9>
  4034e6:	48 89 c2             	mov    rdx,rax
  4034e9:	31 c0                	xor    eax,eax
  4034eb:	e8 40 dd ff ff       	call   401230 <__printf_chk@plt>
  4034f0:	83 cf ff             	or     edi,0xffffffff
  4034f3:	e8 68 dd ff ff       	call   401260 <exit@plt>
  4034f8:	48 63 d0             	movsxd rdx,eax
  4034fb:	48 89 ee             	mov    rsi,rbp
  4034fe:	bf 01 00 00 00       	mov    edi,0x1
  403503:	e8 98 dc ff ff       	call   4011a0 <write@plt>
  403508:	48 8d 3d 45 ec 00 00 	lea    rdi,[rip+0xec45]        # 412154 <_IO_stdin_used+0x154>
  40350f:	e8 7c dc ff ff       	call   401190 <puts@plt>
  403514:	48 8d 3d e9 ea 00 00 	lea    rdi,[rip+0xeae9]        # 412004 <_IO_stdin_used+0x4>
  40351b:	31 f6                	xor    esi,esi
  40351d:	31 c0                	xor    eax,eax
  40351f:	e8 2c dd ff ff       	call   401250 <open@plt>
  403524:	89 c7                	mov    edi,eax
  403526:	85 c0                	test   eax,eax
  403528:	79 34                	jns    40355e <win+0x1fe8>
  40352a:	e8 51 dc ff ff       	call   401180 <__errno_location@plt>
  40352f:	8b 38                	mov    edi,DWORD PTR [rax]
  403531:	e8 4a dd ff ff       	call   401280 <strerror@plt>
  403536:	48 8d 35 cd ea 00 00 	lea    rsi,[rip+0xeacd]        # 41200a <_IO_stdin_used+0xa>
  40353d:	bf 01 00 00 00       	mov    edi,0x1
  403542:	48 89 c2             	mov    rdx,rax
  403545:	31 c0                	xor    eax,eax
  403547:	e8 e4 dc ff ff       	call   401230 <__printf_chk@plt>
  40354c:	e8 8f dc ff ff       	call   4011e0 <geteuid@plt>
  403551:	85 c0                	test   eax,eax
  403553:	0f 84 80 e0 ff ff    	je     4015d9 <win+0x63>
  403559:	e9 63 e0 ff ff       	jmp    4015c1 <win+0x4b>
  40355e:	ba 00 01 00 00       	mov    edx,0x100
  403563:	48 89 ee             	mov    rsi,rbp
  403566:	e8 95 dc ff ff       	call   401200 <read@plt>
  40356b:	85 c0                	test   eax,eax
  40356d:	7f 2a                	jg     403599 <win+0x2023>
  40356f:	e8 0c dc ff ff       	call   401180 <__errno_location@plt>
  403574:	8b 38                	mov    edi,DWORD PTR [rax]
  403576:	e8 05 dd ff ff       	call   401280 <strerror@plt>
  40357b:	bf 01 00 00 00       	mov    edi,0x1
  403580:	48 8d 35 22 eb 00 00 	lea    rsi,[rip+0xeb22]        # 4120a9 <_IO_stdin_used+0xa9>
  403587:	48 89 c2             	mov    rdx,rax
  40358a:	31 c0                	xor    eax,eax
  40358c:	e8 9f dc ff ff       	call   401230 <__printf_chk@plt>
  403591:	83 cf ff             	or     edi,0xffffffff
  403594:	e8 c7 dc ff ff       	call   401260 <exit@plt>
  403599:	48 63 d0             	movsxd rdx,eax
  40359c:	48 89 ee             	mov    rsi,rbp
  40359f:	bf 01 00 00 00       	mov    edi,0x1
  4035a4:	e8 f7 db ff ff       	call   4011a0 <write@plt>
  4035a9:	48 8d 3d a4 eb 00 00 	lea    rdi,[rip+0xeba4]        # 412154 <_IO_stdin_used+0x154>
  4035b0:	e8 db db ff ff       	call   401190 <puts@plt>
  4035b5:	48 8d 3d 48 ea 00 00 	lea    rdi,[rip+0xea48]        # 412004 <_IO_stdin_used+0x4>
  4035bc:	31 f6                	xor    esi,esi
  4035be:	31 c0                	xor    eax,eax
  4035c0:	e8 8b dc ff ff       	call   401250 <open@plt>
  4035c5:	89 c7                	mov    edi,eax
  4035c7:	85 c0                	test   eax,eax
  4035c9:	79 34                	jns    4035ff <win+0x2089>
  4035cb:	e8 b0 db ff ff       	call   401180 <__errno_location@plt>
  4035d0:	8b 38                	mov    edi,DWORD PTR [rax]
  4035d2:	e8 a9 dc ff ff       	call   401280 <strerror@plt>
  4035d7:	48 8d 35 2c ea 00 00 	lea    rsi,[rip+0xea2c]        # 41200a <_IO_stdin_used+0xa>
  4035de:	bf 01 00 00 00       	mov    edi,0x1
  4035e3:	48 89 c2             	mov    rdx,rax
  4035e6:	31 c0                	xor    eax,eax
  4035e8:	e8 43 dc ff ff       	call   401230 <__printf_chk@plt>
  4035ed:	e8 ee db ff ff       	call   4011e0 <geteuid@plt>
  4035f2:	85 c0                	test   eax,eax
  4035f4:	0f 84 df df ff ff    	je     4015d9 <win+0x63>
  4035fa:	e9 c2 df ff ff       	jmp    4015c1 <win+0x4b>
  4035ff:	ba 00 01 00 00       	mov    edx,0x100
  403604:	48 89 ee             	mov    rsi,rbp
  403607:	e8 f4 db ff ff       	call   401200 <read@plt>
  40360c:	85 c0                	test   eax,eax
  40360e:	7f 2a                	jg     40363a <win+0x20c4>
  403610:	e8 6b db ff ff       	call   401180 <__errno_location@plt>
  403615:	8b 38                	mov    edi,DWORD PTR [rax]
  403617:	e8 64 dc ff ff       	call   401280 <strerror@plt>
  40361c:	bf 01 00 00 00       	mov    edi,0x1
  403621:	48 8d 35 81 ea 00 00 	lea    rsi,[rip+0xea81]        # 4120a9 <_IO_stdin_used+0xa9>
  403628:	48 89 c2             	mov    rdx,rax
  40362b:	31 c0                	xor    eax,eax
  40362d:	e8 fe db ff ff       	call   401230 <__printf_chk@plt>
  403632:	83 cf ff             	or     edi,0xffffffff
  403635:	e8 26 dc ff ff       	call   401260 <exit@plt>
  40363a:	48 63 d0             	movsxd rdx,eax
  40363d:	48 89 ee             	mov    rsi,rbp
  403640:	bf 01 00 00 00       	mov    edi,0x1
  403645:	e8 56 db ff ff       	call   4011a0 <write@plt>
  40364a:	48 8d 3d 03 eb 00 00 	lea    rdi,[rip+0xeb03]        # 412154 <_IO_stdin_used+0x154>
  403651:	e8 3a db ff ff       	call   401190 <puts@plt>
  403656:	48 8d 3d a7 e9 00 00 	lea    rdi,[rip+0xe9a7]        # 412004 <_IO_stdin_used+0x4>
  40365d:	31 f6                	xor    esi,esi
  40365f:	31 c0                	xor    eax,eax
  403661:	e8 ea db ff ff       	call   401250 <open@plt>
  403666:	89 c7                	mov    edi,eax
  403668:	85 c0                	test   eax,eax
  40366a:	79 34                	jns    4036a0 <win+0x212a>
  40366c:	e8 0f db ff ff       	call   401180 <__errno_location@plt>
  403671:	8b 38                	mov    edi,DWORD PTR [rax]
  403673:	e8 08 dc ff ff       	call   401280 <strerror@plt>
  403678:	48 8d 35 8b e9 00 00 	lea    rsi,[rip+0xe98b]        # 41200a <_IO_stdin_used+0xa>
  40367f:	bf 01 00 00 00       	mov    edi,0x1
  403684:	48 89 c2             	mov    rdx,rax
  403687:	31 c0                	xor    eax,eax
  403689:	e8 a2 db ff ff       	call   401230 <__printf_chk@plt>
  40368e:	e8 4d db ff ff       	call   4011e0 <geteuid@plt>
  403693:	85 c0                	test   eax,eax
  403695:	0f 84 3e df ff ff    	je     4015d9 <win+0x63>
  40369b:	e9 21 df ff ff       	jmp    4015c1 <win+0x4b>
  4036a0:	ba 00 01 00 00       	mov    edx,0x100
  4036a5:	48 89 ee             	mov    rsi,rbp
  4036a8:	e8 53 db ff ff       	call   401200 <read@plt>
  4036ad:	85 c0                	test   eax,eax
  4036af:	7f 2a                	jg     4036db <win+0x2165>
  4036b1:	e8 ca da ff ff       	call   401180 <__errno_location@plt>
  4036b6:	8b 38                	mov    edi,DWORD PTR [rax]
  4036b8:	e8 c3 db ff ff       	call   401280 <strerror@plt>
  4036bd:	bf 01 00 00 00       	mov    edi,0x1
  4036c2:	48 8d 35 e0 e9 00 00 	lea    rsi,[rip+0xe9e0]        # 4120a9 <_IO_stdin_used+0xa9>
  4036c9:	48 89 c2             	mov    rdx,rax
  4036cc:	31 c0                	xor    eax,eax
  4036ce:	e8 5d db ff ff       	call   401230 <__printf_chk@plt>
  4036d3:	83 cf ff             	or     edi,0xffffffff
  4036d6:	e8 85 db ff ff       	call   401260 <exit@plt>
  4036db:	48 63 d0             	movsxd rdx,eax
  4036de:	48 89 ee             	mov    rsi,rbp
  4036e1:	bf 01 00 00 00       	mov    edi,0x1
  4036e6:	e8 b5 da ff ff       	call   4011a0 <write@plt>
  4036eb:	48 8d 3d 62 ea 00 00 	lea    rdi,[rip+0xea62]        # 412154 <_IO_stdin_used+0x154>
  4036f2:	e8 99 da ff ff       	call   401190 <puts@plt>
  4036f7:	48 8d 3d 06 e9 00 00 	lea    rdi,[rip+0xe906]        # 412004 <_IO_stdin_used+0x4>
  4036fe:	31 f6                	xor    esi,esi
  403700:	31 c0                	xor    eax,eax
  403702:	e8 49 db ff ff       	call   401250 <open@plt>
  403707:	89 c7                	mov    edi,eax
  403709:	85 c0                	test   eax,eax
  40370b:	79 34                	jns    403741 <win+0x21cb>
  40370d:	e8 6e da ff ff       	call   401180 <__errno_location@plt>
  403712:	8b 38                	mov    edi,DWORD PTR [rax]
  403714:	e8 67 db ff ff       	call   401280 <strerror@plt>
  403719:	48 8d 35 ea e8 00 00 	lea    rsi,[rip+0xe8ea]        # 41200a <_IO_stdin_used+0xa>
  403720:	bf 01 00 00 00       	mov    edi,0x1
  403725:	48 89 c2             	mov    rdx,rax
  403728:	31 c0                	xor    eax,eax
  40372a:	e8 01 db ff ff       	call   401230 <__printf_chk@plt>
  40372f:	e8 ac da ff ff       	call   4011e0 <geteuid@plt>
  403734:	85 c0                	test   eax,eax
  403736:	0f 84 9d de ff ff    	je     4015d9 <win+0x63>
  40373c:	e9 80 de ff ff       	jmp    4015c1 <win+0x4b>
  403741:	ba 00 01 00 00       	mov    edx,0x100
  403746:	48 89 ee             	mov    rsi,rbp
  403749:	e8 b2 da ff ff       	call   401200 <read@plt>
  40374e:	85 c0                	test   eax,eax
  403750:	7f 2a                	jg     40377c <win+0x2206>
  403752:	e8 29 da ff ff       	call   401180 <__errno_location@plt>
  403757:	8b 38                	mov    edi,DWORD PTR [rax]
  403759:	e8 22 db ff ff       	call   401280 <strerror@plt>
  40375e:	bf 01 00 00 00       	mov    edi,0x1
  403763:	48 8d 35 3f e9 00 00 	lea    rsi,[rip+0xe93f]        # 4120a9 <_IO_stdin_used+0xa9>
  40376a:	48 89 c2             	mov    rdx,rax
  40376d:	31 c0                	xor    eax,eax
  40376f:	e8 bc da ff ff       	call   401230 <__printf_chk@plt>
  403774:	83 cf ff             	or     edi,0xffffffff
  403777:	e8 e4 da ff ff       	call   401260 <exit@plt>
  40377c:	48 63 d0             	movsxd rdx,eax
  40377f:	48 89 ee             	mov    rsi,rbp
  403782:	bf 01 00 00 00       	mov    edi,0x1
  403787:	e8 14 da ff ff       	call   4011a0 <write@plt>
  40378c:	48 8d 3d c1 e9 00 00 	lea    rdi,[rip+0xe9c1]        # 412154 <_IO_stdin_used+0x154>
  403793:	e8 f8 d9 ff ff       	call   401190 <puts@plt>
  403798:	48 8d 3d 65 e8 00 00 	lea    rdi,[rip+0xe865]        # 412004 <_IO_stdin_used+0x4>
  40379f:	31 f6                	xor    esi,esi
  4037a1:	31 c0                	xor    eax,eax
  4037a3:	e8 a8 da ff ff       	call   401250 <open@plt>
  4037a8:	89 c7                	mov    edi,eax
  4037aa:	85 c0                	test   eax,eax
  4037ac:	79 34                	jns    4037e2 <win+0x226c>
  4037ae:	e8 cd d9 ff ff       	call   401180 <__errno_location@plt>
  4037b3:	8b 38                	mov    edi,DWORD PTR [rax]
  4037b5:	e8 c6 da ff ff       	call   401280 <strerror@plt>
  4037ba:	48 8d 35 49 e8 00 00 	lea    rsi,[rip+0xe849]        # 41200a <_IO_stdin_used+0xa>
  4037c1:	bf 01 00 00 00       	mov    edi,0x1
  4037c6:	48 89 c2             	mov    rdx,rax
  4037c9:	31 c0                	xor    eax,eax
  4037cb:	e8 60 da ff ff       	call   401230 <__printf_chk@plt>
  4037d0:	e8 0b da ff ff       	call   4011e0 <geteuid@plt>
  4037d5:	85 c0                	test   eax,eax
  4037d7:	0f 84 fc dd ff ff    	je     4015d9 <win+0x63>
  4037dd:	e9 df dd ff ff       	jmp    4015c1 <win+0x4b>
  4037e2:	ba 00 01 00 00       	mov    edx,0x100
  4037e7:	48 89 ee             	mov    rsi,rbp
  4037ea:	e8 11 da ff ff       	call   401200 <read@plt>
  4037ef:	85 c0                	test   eax,eax
  4037f1:	7f 2a                	jg     40381d <win+0x22a7>
  4037f3:	e8 88 d9 ff ff       	call   401180 <__errno_location@plt>
  4037f8:	8b 38                	mov    edi,DWORD PTR [rax]
  4037fa:	e8 81 da ff ff       	call   401280 <strerror@plt>
  4037ff:	bf 01 00 00 00       	mov    edi,0x1
  403804:	48 8d 35 9e e8 00 00 	lea    rsi,[rip+0xe89e]        # 4120a9 <_IO_stdin_used+0xa9>
  40380b:	48 89 c2             	mov    rdx,rax
  40380e:	31 c0                	xor    eax,eax
  403810:	e8 1b da ff ff       	call   401230 <__printf_chk@plt>
  403815:	83 cf ff             	or     edi,0xffffffff
  403818:	e8 43 da ff ff       	call   401260 <exit@plt>
  40381d:	48 63 d0             	movsxd rdx,eax
  403820:	48 89 ee             	mov    rsi,rbp
  403823:	bf 01 00 00 00       	mov    edi,0x1
  403828:	e8 73 d9 ff ff       	call   4011a0 <write@plt>
  40382d:	48 8d 3d 20 e9 00 00 	lea    rdi,[rip+0xe920]        # 412154 <_IO_stdin_used+0x154>
  403834:	e8 57 d9 ff ff       	call   401190 <puts@plt>
  403839:	48 8d 3d c4 e7 00 00 	lea    rdi,[rip+0xe7c4]        # 412004 <_IO_stdin_used+0x4>
  403840:	31 f6                	xor    esi,esi
  403842:	31 c0                	xor    eax,eax
  403844:	e8 07 da ff ff       	call   401250 <open@plt>
  403849:	89 c7                	mov    edi,eax
  40384b:	85 c0                	test   eax,eax
  40384d:	79 34                	jns    403883 <win+0x230d>
  40384f:	e8 2c d9 ff ff       	call   401180 <__errno_location@plt>
  403854:	8b 38                	mov    edi,DWORD PTR [rax]
  403856:	e8 25 da ff ff       	call   401280 <strerror@plt>
  40385b:	48 8d 35 a8 e7 00 00 	lea    rsi,[rip+0xe7a8]        # 41200a <_IO_stdin_used+0xa>
  403862:	bf 01 00 00 00       	mov    edi,0x1
  403867:	48 89 c2             	mov    rdx,rax
  40386a:	31 c0                	xor    eax,eax
  40386c:	e8 bf d9 ff ff       	call   401230 <__printf_chk@plt>
  403871:	e8 6a d9 ff ff       	call   4011e0 <geteuid@plt>
  403876:	85 c0                	test   eax,eax
  403878:	0f 84 5b dd ff ff    	je     4015d9 <win+0x63>
  40387e:	e9 3e dd ff ff       	jmp    4015c1 <win+0x4b>
  403883:	ba 00 01 00 00       	mov    edx,0x100
  403888:	48 89 ee             	mov    rsi,rbp
  40388b:	e8 70 d9 ff ff       	call   401200 <read@plt>
  403890:	85 c0                	test   eax,eax
  403892:	7f 2a                	jg     4038be <win+0x2348>
  403894:	e8 e7 d8 ff ff       	call   401180 <__errno_location@plt>
  403899:	8b 38                	mov    edi,DWORD PTR [rax]
  40389b:	e8 e0 d9 ff ff       	call   401280 <strerror@plt>
  4038a0:	bf 01 00 00 00       	mov    edi,0x1
  4038a5:	48 8d 35 fd e7 00 00 	lea    rsi,[rip+0xe7fd]        # 4120a9 <_IO_stdin_used+0xa9>
  4038ac:	48 89 c2             	mov    rdx,rax
  4038af:	31 c0                	xor    eax,eax
  4038b1:	e8 7a d9 ff ff       	call   401230 <__printf_chk@plt>
  4038b6:	83 cf ff             	or     edi,0xffffffff
  4038b9:	e8 a2 d9 ff ff       	call   401260 <exit@plt>
  4038be:	48 63 d0             	movsxd rdx,eax
  4038c1:	48 89 ee             	mov    rsi,rbp
  4038c4:	bf 01 00 00 00       	mov    edi,0x1
  4038c9:	e8 d2 d8 ff ff       	call   4011a0 <write@plt>
  4038ce:	48 8d 3d 7f e8 00 00 	lea    rdi,[rip+0xe87f]        # 412154 <_IO_stdin_used+0x154>
  4038d5:	e8 b6 d8 ff ff       	call   401190 <puts@plt>
  4038da:	48 8d 3d 23 e7 00 00 	lea    rdi,[rip+0xe723]        # 412004 <_IO_stdin_used+0x4>
  4038e1:	31 f6                	xor    esi,esi
  4038e3:	31 c0                	xor    eax,eax
  4038e5:	e8 66 d9 ff ff       	call   401250 <open@plt>
  4038ea:	89 c7                	mov    edi,eax
  4038ec:	85 c0                	test   eax,eax
  4038ee:	79 34                	jns    403924 <win+0x23ae>
  4038f0:	e8 8b d8 ff ff       	call   401180 <__errno_location@plt>
  4038f5:	8b 38                	mov    edi,DWORD PTR [rax]
  4038f7:	e8 84 d9 ff ff       	call   401280 <strerror@plt>
  4038fc:	48 8d 35 07 e7 00 00 	lea    rsi,[rip+0xe707]        # 41200a <_IO_stdin_used+0xa>
  403903:	bf 01 00 00 00       	mov    edi,0x1
  403908:	48 89 c2             	mov    rdx,rax
  40390b:	31 c0                	xor    eax,eax
  40390d:	e8 1e d9 ff ff       	call   401230 <__printf_chk@plt>
  403912:	e8 c9 d8 ff ff       	call   4011e0 <geteuid@plt>
  403917:	85 c0                	test   eax,eax
  403919:	0f 84 ba dc ff ff    	je     4015d9 <win+0x63>
  40391f:	e9 9d dc ff ff       	jmp    4015c1 <win+0x4b>
  403924:	ba 00 01 00 00       	mov    edx,0x100
  403929:	48 89 ee             	mov    rsi,rbp
  40392c:	e8 cf d8 ff ff       	call   401200 <read@plt>
  403931:	85 c0                	test   eax,eax
  403933:	7f 2a                	jg     40395f <win+0x23e9>
  403935:	e8 46 d8 ff ff       	call   401180 <__errno_location@plt>
  40393a:	8b 38                	mov    edi,DWORD PTR [rax]
  40393c:	e8 3f d9 ff ff       	call   401280 <strerror@plt>
  403941:	bf 01 00 00 00       	mov    edi,0x1
  403946:	48 8d 35 5c e7 00 00 	lea    rsi,[rip+0xe75c]        # 4120a9 <_IO_stdin_used+0xa9>
  40394d:	48 89 c2             	mov    rdx,rax
  403950:	31 c0                	xor    eax,eax
  403952:	e8 d9 d8 ff ff       	call   401230 <__printf_chk@plt>
  403957:	83 cf ff             	or     edi,0xffffffff
  40395a:	e8 01 d9 ff ff       	call   401260 <exit@plt>
  40395f:	48 63 d0             	movsxd rdx,eax
  403962:	48 89 ee             	mov    rsi,rbp
  403965:	bf 01 00 00 00       	mov    edi,0x1
  40396a:	e8 31 d8 ff ff       	call   4011a0 <write@plt>
  40396f:	48 8d 3d de e7 00 00 	lea    rdi,[rip+0xe7de]        # 412154 <_IO_stdin_used+0x154>
  403976:	e8 15 d8 ff ff       	call   401190 <puts@plt>
  40397b:	48 8d 3d 82 e6 00 00 	lea    rdi,[rip+0xe682]        # 412004 <_IO_stdin_used+0x4>
  403982:	31 f6                	xor    esi,esi
  403984:	31 c0                	xor    eax,eax
  403986:	e8 c5 d8 ff ff       	call   401250 <open@plt>
  40398b:	89 c7                	mov    edi,eax
  40398d:	85 c0                	test   eax,eax
  40398f:	79 34                	jns    4039c5 <win+0x244f>
  403991:	e8 ea d7 ff ff       	call   401180 <__errno_location@plt>
  403996:	8b 38                	mov    edi,DWORD PTR [rax]
  403998:	e8 e3 d8 ff ff       	call   401280 <strerror@plt>
  40399d:	48 8d 35 66 e6 00 00 	lea    rsi,[rip+0xe666]        # 41200a <_IO_stdin_used+0xa>
  4039a4:	bf 01 00 00 00       	mov    edi,0x1
  4039a9:	48 89 c2             	mov    rdx,rax
  4039ac:	31 c0                	xor    eax,eax
  4039ae:	e8 7d d8 ff ff       	call   401230 <__printf_chk@plt>
  4039b3:	e8 28 d8 ff ff       	call   4011e0 <geteuid@plt>
  4039b8:	85 c0                	test   eax,eax
  4039ba:	0f 84 19 dc ff ff    	je     4015d9 <win+0x63>
  4039c0:	e9 fc db ff ff       	jmp    4015c1 <win+0x4b>
  4039c5:	ba 00 01 00 00       	mov    edx,0x100
  4039ca:	48 89 ee             	mov    rsi,rbp
  4039cd:	e8 2e d8 ff ff       	call   401200 <read@plt>
  4039d2:	85 c0                	test   eax,eax
  4039d4:	7f 2a                	jg     403a00 <win+0x248a>
  4039d6:	e8 a5 d7 ff ff       	call   401180 <__errno_location@plt>
  4039db:	8b 38                	mov    edi,DWORD PTR [rax]
  4039dd:	e8 9e d8 ff ff       	call   401280 <strerror@plt>
  4039e2:	bf 01 00 00 00       	mov    edi,0x1
  4039e7:	48 8d 35 bb e6 00 00 	lea    rsi,[rip+0xe6bb]        # 4120a9 <_IO_stdin_used+0xa9>
  4039ee:	48 89 c2             	mov    rdx,rax
  4039f1:	31 c0                	xor    eax,eax
  4039f3:	e8 38 d8 ff ff       	call   401230 <__printf_chk@plt>
  4039f8:	83 cf ff             	or     edi,0xffffffff
  4039fb:	e8 60 d8 ff ff       	call   401260 <exit@plt>
  403a00:	48 63 d0             	movsxd rdx,eax
  403a03:	48 89 ee             	mov    rsi,rbp
  403a06:	bf 01 00 00 00       	mov    edi,0x1
  403a0b:	e8 90 d7 ff ff       	call   4011a0 <write@plt>
  403a10:	48 8d 3d 3d e7 00 00 	lea    rdi,[rip+0xe73d]        # 412154 <_IO_stdin_used+0x154>
  403a17:	e8 74 d7 ff ff       	call   401190 <puts@plt>
  403a1c:	48 8d 3d e1 e5 00 00 	lea    rdi,[rip+0xe5e1]        # 412004 <_IO_stdin_used+0x4>
  403a23:	31 f6                	xor    esi,esi
  403a25:	31 c0                	xor    eax,eax
  403a27:	e8 24 d8 ff ff       	call   401250 <open@plt>
  403a2c:	89 c7                	mov    edi,eax
  403a2e:	85 c0                	test   eax,eax
  403a30:	79 34                	jns    403a66 <win+0x24f0>
  403a32:	e8 49 d7 ff ff       	call   401180 <__errno_location@plt>
  403a37:	8b 38                	mov    edi,DWORD PTR [rax]
  403a39:	e8 42 d8 ff ff       	call   401280 <strerror@plt>
  403a3e:	48 8d 35 c5 e5 00 00 	lea    rsi,[rip+0xe5c5]        # 41200a <_IO_stdin_used+0xa>
  403a45:	bf 01 00 00 00       	mov    edi,0x1
  403a4a:	48 89 c2             	mov    rdx,rax
  403a4d:	31 c0                	xor    eax,eax
  403a4f:	e8 dc d7 ff ff       	call   401230 <__printf_chk@plt>
  403a54:	e8 87 d7 ff ff       	call   4011e0 <geteuid@plt>
  403a59:	85 c0                	test   eax,eax
  403a5b:	0f 84 78 db ff ff    	je     4015d9 <win+0x63>
  403a61:	e9 5b db ff ff       	jmp    4015c1 <win+0x4b>
  403a66:	ba 00 01 00 00       	mov    edx,0x100
  403a6b:	48 89 ee             	mov    rsi,rbp
  403a6e:	e8 8d d7 ff ff       	call   401200 <read@plt>
  403a73:	85 c0                	test   eax,eax
  403a75:	7f 2a                	jg     403aa1 <win+0x252b>
  403a77:	e8 04 d7 ff ff       	call   401180 <__errno_location@plt>
  403a7c:	8b 38                	mov    edi,DWORD PTR [rax]
  403a7e:	e8 fd d7 ff ff       	call   401280 <strerror@plt>
  403a83:	bf 01 00 00 00       	mov    edi,0x1
  403a88:	48 8d 35 1a e6 00 00 	lea    rsi,[rip+0xe61a]        # 4120a9 <_IO_stdin_used+0xa9>
  403a8f:	48 89 c2             	mov    rdx,rax
  403a92:	31 c0                	xor    eax,eax
  403a94:	e8 97 d7 ff ff       	call   401230 <__printf_chk@plt>
  403a99:	83 cf ff             	or     edi,0xffffffff
  403a9c:	e8 bf d7 ff ff       	call   401260 <exit@plt>
  403aa1:	48 63 d0             	movsxd rdx,eax
  403aa4:	48 89 ee             	mov    rsi,rbp
  403aa7:	bf 01 00 00 00       	mov    edi,0x1
  403aac:	e8 ef d6 ff ff       	call   4011a0 <write@plt>
  403ab1:	48 8d 3d 9c e6 00 00 	lea    rdi,[rip+0xe69c]        # 412154 <_IO_stdin_used+0x154>
  403ab8:	e8 d3 d6 ff ff       	call   401190 <puts@plt>
  403abd:	48 8d 3d 40 e5 00 00 	lea    rdi,[rip+0xe540]        # 412004 <_IO_stdin_used+0x4>
  403ac4:	31 f6                	xor    esi,esi
  403ac6:	31 c0                	xor    eax,eax
  403ac8:	e8 83 d7 ff ff       	call   401250 <open@plt>
  403acd:	89 c7                	mov    edi,eax
  403acf:	85 c0                	test   eax,eax
  403ad1:	79 34                	jns    403b07 <win+0x2591>
  403ad3:	e8 a8 d6 ff ff       	call   401180 <__errno_location@plt>
  403ad8:	8b 38                	mov    edi,DWORD PTR [rax]
  403ada:	e8 a1 d7 ff ff       	call   401280 <strerror@plt>
  403adf:	48 8d 35 24 e5 00 00 	lea    rsi,[rip+0xe524]        # 41200a <_IO_stdin_used+0xa>
  403ae6:	bf 01 00 00 00       	mov    edi,0x1
  403aeb:	48 89 c2             	mov    rdx,rax
  403aee:	31 c0                	xor    eax,eax
  403af0:	e8 3b d7 ff ff       	call   401230 <__printf_chk@plt>
  403af5:	e8 e6 d6 ff ff       	call   4011e0 <geteuid@plt>
  403afa:	85 c0                	test   eax,eax
  403afc:	0f 84 d7 da ff ff    	je     4015d9 <win+0x63>
  403b02:	e9 ba da ff ff       	jmp    4015c1 <win+0x4b>
  403b07:	ba 00 01 00 00       	mov    edx,0x100
  403b0c:	48 89 ee             	mov    rsi,rbp
  403b0f:	e8 ec d6 ff ff       	call   401200 <read@plt>
  403b14:	85 c0                	test   eax,eax
  403b16:	7f 2a                	jg     403b42 <win+0x25cc>
  403b18:	e8 63 d6 ff ff       	call   401180 <__errno_location@plt>
  403b1d:	8b 38                	mov    edi,DWORD PTR [rax]
  403b1f:	e8 5c d7 ff ff       	call   401280 <strerror@plt>
  403b24:	bf 01 00 00 00       	mov    edi,0x1
  403b29:	48 8d 35 79 e5 00 00 	lea    rsi,[rip+0xe579]        # 4120a9 <_IO_stdin_used+0xa9>
  403b30:	48 89 c2             	mov    rdx,rax
  403b33:	31 c0                	xor    eax,eax
  403b35:	e8 f6 d6 ff ff       	call   401230 <__printf_chk@plt>
  403b3a:	83 cf ff             	or     edi,0xffffffff
  403b3d:	e8 1e d7 ff ff       	call   401260 <exit@plt>
  403b42:	48 89 e5             	mov    rbp,rsp
  403b45:	48 63 d0             	movsxd rdx,eax
  403b48:	bf 01 00 00 00       	mov    edi,0x1
  403b4d:	48 89 ee             	mov    rsi,rbp
  403b50:	e8 4b d6 ff ff       	call   4011a0 <write@plt>
  403b55:	48 8d 3d f8 e5 00 00 	lea    rdi,[rip+0xe5f8]        # 412154 <_IO_stdin_used+0x154>
  403b5c:	e8 2f d6 ff ff       	call   401190 <puts@plt>
  403b61:	48 8d 3d 9c e4 00 00 	lea    rdi,[rip+0xe49c]        # 412004 <_IO_stdin_used+0x4>
  403b68:	31 f6                	xor    esi,esi
  403b6a:	31 c0                	xor    eax,eax
  403b6c:	e8 df d6 ff ff       	call   401250 <open@plt>
  403b71:	89 c7                	mov    edi,eax
  403b73:	85 c0                	test   eax,eax
  403b75:	79 34                	jns    403bab <win+0x2635>
  403b77:	e8 04 d6 ff ff       	call   401180 <__errno_location@plt>
  403b7c:	8b 38                	mov    edi,DWORD PTR [rax]
  403b7e:	e8 fd d6 ff ff       	call   401280 <strerror@plt>
  403b83:	48 8d 35 80 e4 00 00 	lea    rsi,[rip+0xe480]        # 41200a <_IO_stdin_used+0xa>
  403b8a:	bf 01 00 00 00       	mov    edi,0x1
  403b8f:	48 89 c2             	mov    rdx,rax
  403b92:	31 c0                	xor    eax,eax
  403b94:	e8 97 d6 ff ff       	call   401230 <__printf_chk@plt>
  403b99:	e8 42 d6 ff ff       	call   4011e0 <geteuid@plt>
  403b9e:	85 c0                	test   eax,eax
  403ba0:	0f 84 33 da ff ff    	je     4015d9 <win+0x63>
  403ba6:	e9 16 da ff ff       	jmp    4015c1 <win+0x4b>
  403bab:	ba 00 01 00 00       	mov    edx,0x100
  403bb0:	48 89 ee             	mov    rsi,rbp
  403bb3:	e8 48 d6 ff ff       	call   401200 <read@plt>
  403bb8:	85 c0                	test   eax,eax
  403bba:	7f 2a                	jg     403be6 <win+0x2670>
  403bbc:	e8 bf d5 ff ff       	call   401180 <__errno_location@plt>
  403bc1:	8b 38                	mov    edi,DWORD PTR [rax]
  403bc3:	e8 b8 d6 ff ff       	call   401280 <strerror@plt>
  403bc8:	bf 01 00 00 00       	mov    edi,0x1
  403bcd:	48 8d 35 d5 e4 00 00 	lea    rsi,[rip+0xe4d5]        # 4120a9 <_IO_stdin_used+0xa9>
  403bd4:	48 89 c2             	mov    rdx,rax
  403bd7:	31 c0                	xor    eax,eax
  403bd9:	e8 52 d6 ff ff       	call   401230 <__printf_chk@plt>
  403bde:	83 cf ff             	or     edi,0xffffffff
  403be1:	e8 7a d6 ff ff       	call   401260 <exit@plt>
  403be6:	48 63 d0             	movsxd rdx,eax
  403be9:	48 89 ee             	mov    rsi,rbp
  403bec:	bf 01 00 00 00       	mov    edi,0x1
  403bf1:	e8 aa d5 ff ff       	call   4011a0 <write@plt>
  403bf6:	48 8d 3d 57 e5 00 00 	lea    rdi,[rip+0xe557]        # 412154 <_IO_stdin_used+0x154>
  403bfd:	e8 8e d5 ff ff       	call   401190 <puts@plt>
  403c02:	48 8d 3d fb e3 00 00 	lea    rdi,[rip+0xe3fb]        # 412004 <_IO_stdin_used+0x4>
  403c09:	31 f6                	xor    esi,esi
  403c0b:	31 c0                	xor    eax,eax
  403c0d:	e8 3e d6 ff ff       	call   401250 <open@plt>
  403c12:	89 c7                	mov    edi,eax
  403c14:	85 c0                	test   eax,eax
  403c16:	79 34                	jns    403c4c <win+0x26d6>
  403c18:	e8 63 d5 ff ff       	call   401180 <__errno_location@plt>
  403c1d:	8b 38                	mov    edi,DWORD PTR [rax]
  403c1f:	e8 5c d6 ff ff       	call   401280 <strerror@plt>
  403c24:	48 8d 35 df e3 00 00 	lea    rsi,[rip+0xe3df]        # 41200a <_IO_stdin_used+0xa>
  403c2b:	bf 01 00 00 00       	mov    edi,0x1
  403c30:	48 89 c2             	mov    rdx,rax
  403c33:	31 c0                	xor    eax,eax
  403c35:	e8 f6 d5 ff ff       	call   401230 <__printf_chk@plt>
  403c3a:	e8 a1 d5 ff ff       	call   4011e0 <geteuid@plt>
  403c3f:	85 c0                	test   eax,eax
  403c41:	0f 84 92 d9 ff ff    	je     4015d9 <win+0x63>
  403c47:	e9 75 d9 ff ff       	jmp    4015c1 <win+0x4b>
  403c4c:	ba 00 01 00 00       	mov    edx,0x100
  403c51:	48 89 ee             	mov    rsi,rbp
  403c54:	e8 a7 d5 ff ff       	call   401200 <read@plt>
  403c59:	85 c0                	test   eax,eax
  403c5b:	7f 2a                	jg     403c87 <win+0x2711>
  403c5d:	e8 1e d5 ff ff       	call   401180 <__errno_location@plt>
  403c62:	8b 38                	mov    edi,DWORD PTR [rax]
  403c64:	e8 17 d6 ff ff       	call   401280 <strerror@plt>
  403c69:	bf 01 00 00 00       	mov    edi,0x1
  403c6e:	48 8d 35 34 e4 00 00 	lea    rsi,[rip+0xe434]        # 4120a9 <_IO_stdin_used+0xa9>
  403c75:	48 89 c2             	mov    rdx,rax
  403c78:	31 c0                	xor    eax,eax
  403c7a:	e8 b1 d5 ff ff       	call   401230 <__printf_chk@plt>
  403c7f:	83 cf ff             	or     edi,0xffffffff
  403c82:	e8 d9 d5 ff ff       	call   401260 <exit@plt>
  403c87:	48 63 d0             	movsxd rdx,eax
  403c8a:	48 89 ee             	mov    rsi,rbp
  403c8d:	bf 01 00 00 00       	mov    edi,0x1
  403c92:	e8 09 d5 ff ff       	call   4011a0 <write@plt>
  403c97:	48 8d 3d b6 e4 00 00 	lea    rdi,[rip+0xe4b6]        # 412154 <_IO_stdin_used+0x154>
  403c9e:	e8 ed d4 ff ff       	call   401190 <puts@plt>
  403ca3:	48 8d 3d 5a e3 00 00 	lea    rdi,[rip+0xe35a]        # 412004 <_IO_stdin_used+0x4>
  403caa:	31 f6                	xor    esi,esi
  403cac:	31 c0                	xor    eax,eax
  403cae:	e8 9d d5 ff ff       	call   401250 <open@plt>
  403cb3:	89 c7                	mov    edi,eax
  403cb5:	85 c0                	test   eax,eax
  403cb7:	79 34                	jns    403ced <win+0x2777>
  403cb9:	e8 c2 d4 ff ff       	call   401180 <__errno_location@plt>
  403cbe:	8b 38                	mov    edi,DWORD PTR [rax]
  403cc0:	e8 bb d5 ff ff       	call   401280 <strerror@plt>
  403cc5:	48 8d 35 3e e3 00 00 	lea    rsi,[rip+0xe33e]        # 41200a <_IO_stdin_used+0xa>
  403ccc:	bf 01 00 00 00       	mov    edi,0x1
  403cd1:	48 89 c2             	mov    rdx,rax
  403cd4:	31 c0                	xor    eax,eax
  403cd6:	e8 55 d5 ff ff       	call   401230 <__printf_chk@plt>
  403cdb:	e8 00 d5 ff ff       	call   4011e0 <geteuid@plt>
  403ce0:	85 c0                	test   eax,eax
  403ce2:	0f 84 f1 d8 ff ff    	je     4015d9 <win+0x63>
  403ce8:	e9 d4 d8 ff ff       	jmp    4015c1 <win+0x4b>
  403ced:	ba 00 01 00 00       	mov    edx,0x100
  403cf2:	48 89 ee             	mov    rsi,rbp
  403cf5:	e8 06 d5 ff ff       	call   401200 <read@plt>
  403cfa:	85 c0                	test   eax,eax
  403cfc:	7f 2a                	jg     403d28 <win+0x27b2>
  403cfe:	e8 7d d4 ff ff       	call   401180 <__errno_location@plt>
  403d03:	8b 38                	mov    edi,DWORD PTR [rax]
  403d05:	e8 76 d5 ff ff       	call   401280 <strerror@plt>
  403d0a:	bf 01 00 00 00       	mov    edi,0x1
  403d0f:	48 8d 35 93 e3 00 00 	lea    rsi,[rip+0xe393]        # 4120a9 <_IO_stdin_used+0xa9>
  403d16:	48 89 c2             	mov    rdx,rax
  403d19:	31 c0                	xor    eax,eax
  403d1b:	e8 10 d5 ff ff       	call   401230 <__printf_chk@plt>
  403d20:	83 cf ff             	or     edi,0xffffffff
  403d23:	e8 38 d5 ff ff       	call   401260 <exit@plt>
  403d28:	48 63 d0             	movsxd rdx,eax
  403d2b:	48 89 ee             	mov    rsi,rbp
  403d2e:	bf 01 00 00 00       	mov    edi,0x1
  403d33:	e8 68 d4 ff ff       	call   4011a0 <write@plt>
  403d38:	48 8d 3d 15 e4 00 00 	lea    rdi,[rip+0xe415]        # 412154 <_IO_stdin_used+0x154>
  403d3f:	e8 4c d4 ff ff       	call   401190 <puts@plt>
  403d44:	48 8d 3d b9 e2 00 00 	lea    rdi,[rip+0xe2b9]        # 412004 <_IO_stdin_used+0x4>
  403d4b:	31 f6                	xor    esi,esi
  403d4d:	31 c0                	xor    eax,eax
  403d4f:	e8 fc d4 ff ff       	call   401250 <open@plt>
  403d54:	89 c7                	mov    edi,eax
  403d56:	85 c0                	test   eax,eax
  403d58:	79 34                	jns    403d8e <win+0x2818>
  403d5a:	e8 21 d4 ff ff       	call   401180 <__errno_location@plt>
  403d5f:	8b 38                	mov    edi,DWORD PTR [rax]
  403d61:	e8 1a d5 ff ff       	call   401280 <strerror@plt>
  403d66:	48 8d 35 9d e2 00 00 	lea    rsi,[rip+0xe29d]        # 41200a <_IO_stdin_used+0xa>
  403d6d:	bf 01 00 00 00       	mov    edi,0x1
  403d72:	48 89 c2             	mov    rdx,rax
  403d75:	31 c0                	xor    eax,eax
  403d77:	e8 b4 d4 ff ff       	call   401230 <__printf_chk@plt>
  403d7c:	e8 5f d4 ff ff       	call   4011e0 <geteuid@plt>
  403d81:	85 c0                	test   eax,eax
  403d83:	0f 84 50 d8 ff ff    	je     4015d9 <win+0x63>
  403d89:	e9 33 d8 ff ff       	jmp    4015c1 <win+0x4b>
  403d8e:	ba 00 01 00 00       	mov    edx,0x100
  403d93:	48 89 ee             	mov    rsi,rbp
  403d96:	e8 65 d4 ff ff       	call   401200 <read@plt>
  403d9b:	85 c0                	test   eax,eax
  403d9d:	7f 2a                	jg     403dc9 <win+0x2853>
  403d9f:	e8 dc d3 ff ff       	call   401180 <__errno_location@plt>
  403da4:	8b 38                	mov    edi,DWORD PTR [rax]
  403da6:	e8 d5 d4 ff ff       	call   401280 <strerror@plt>
  403dab:	bf 01 00 00 00       	mov    edi,0x1
  403db0:	48 8d 35 f2 e2 00 00 	lea    rsi,[rip+0xe2f2]        # 4120a9 <_IO_stdin_used+0xa9>
  403db7:	48 89 c2             	mov    rdx,rax
  403dba:	31 c0                	xor    eax,eax
  403dbc:	e8 6f d4 ff ff       	call   401230 <__printf_chk@plt>
  403dc1:	83 cf ff             	or     edi,0xffffffff
  403dc4:	e8 97 d4 ff ff       	call   401260 <exit@plt>
  403dc9:	48 63 d0             	movsxd rdx,eax
  403dcc:	48 89 ee             	mov    rsi,rbp
  403dcf:	bf 01 00 00 00       	mov    edi,0x1
  403dd4:	e8 c7 d3 ff ff       	call   4011a0 <write@plt>
  403dd9:	48 8d 3d 74 e3 00 00 	lea    rdi,[rip+0xe374]        # 412154 <_IO_stdin_used+0x154>
  403de0:	e8 ab d3 ff ff       	call   401190 <puts@plt>
  403de5:	48 8d 3d 18 e2 00 00 	lea    rdi,[rip+0xe218]        # 412004 <_IO_stdin_used+0x4>
  403dec:	31 f6                	xor    esi,esi
  403dee:	31 c0                	xor    eax,eax
  403df0:	e8 5b d4 ff ff       	call   401250 <open@plt>
  403df5:	89 c7                	mov    edi,eax
  403df7:	85 c0                	test   eax,eax
  403df9:	79 34                	jns    403e2f <win+0x28b9>
  403dfb:	e8 80 d3 ff ff       	call   401180 <__errno_location@plt>
  403e00:	8b 38                	mov    edi,DWORD PTR [rax]
  403e02:	e8 79 d4 ff ff       	call   401280 <strerror@plt>
  403e07:	48 8d 35 fc e1 00 00 	lea    rsi,[rip+0xe1fc]        # 41200a <_IO_stdin_used+0xa>
  403e0e:	bf 01 00 00 00       	mov    edi,0x1
  403e13:	48 89 c2             	mov    rdx,rax
  403e16:	31 c0                	xor    eax,eax
  403e18:	e8 13 d4 ff ff       	call   401230 <__printf_chk@plt>
  403e1d:	e8 be d3 ff ff       	call   4011e0 <geteuid@plt>
  403e22:	85 c0                	test   eax,eax
  403e24:	0f 84 af d7 ff ff    	je     4015d9 <win+0x63>
  403e2a:	e9 92 d7 ff ff       	jmp    4015c1 <win+0x4b>
  403e2f:	ba 00 01 00 00       	mov    edx,0x100
  403e34:	48 89 ee             	mov    rsi,rbp
  403e37:	e8 c4 d3 ff ff       	call   401200 <read@plt>
  403e3c:	85 c0                	test   eax,eax
  403e3e:	7f 2a                	jg     403e6a <win+0x28f4>
  403e40:	e8 3b d3 ff ff       	call   401180 <__errno_location@plt>
  403e45:	8b 38                	mov    edi,DWORD PTR [rax]
  403e47:	e8 34 d4 ff ff       	call   401280 <strerror@plt>
  403e4c:	bf 01 00 00 00       	mov    edi,0x1
  403e51:	48 8d 35 51 e2 00 00 	lea    rsi,[rip+0xe251]        # 4120a9 <_IO_stdin_used+0xa9>
  403e58:	48 89 c2             	mov    rdx,rax
  403e5b:	31 c0                	xor    eax,eax
  403e5d:	e8 ce d3 ff ff       	call   401230 <__printf_chk@plt>
  403e62:	83 cf ff             	or     edi,0xffffffff
  403e65:	e8 f6 d3 ff ff       	call   401260 <exit@plt>
  403e6a:	48 63 d0             	movsxd rdx,eax
  403e6d:	48 89 ee             	mov    rsi,rbp
  403e70:	bf 01 00 00 00       	mov    edi,0x1
  403e75:	e8 26 d3 ff ff       	call   4011a0 <write@plt>
  403e7a:	48 8d 3d d3 e2 00 00 	lea    rdi,[rip+0xe2d3]        # 412154 <_IO_stdin_used+0x154>
  403e81:	e8 0a d3 ff ff       	call   401190 <puts@plt>
  403e86:	48 8d 3d 77 e1 00 00 	lea    rdi,[rip+0xe177]        # 412004 <_IO_stdin_used+0x4>
  403e8d:	31 f6                	xor    esi,esi
  403e8f:	31 c0                	xor    eax,eax
  403e91:	e8 ba d3 ff ff       	call   401250 <open@plt>
  403e96:	89 c7                	mov    edi,eax
  403e98:	85 c0                	test   eax,eax
  403e9a:	79 34                	jns    403ed0 <win+0x295a>
  403e9c:	e8 df d2 ff ff       	call   401180 <__errno_location@plt>
  403ea1:	8b 38                	mov    edi,DWORD PTR [rax]
  403ea3:	e8 d8 d3 ff ff       	call   401280 <strerror@plt>
  403ea8:	48 8d 35 5b e1 00 00 	lea    rsi,[rip+0xe15b]        # 41200a <_IO_stdin_used+0xa>
  403eaf:	bf 01 00 00 00       	mov    edi,0x1
  403eb4:	48 89 c2             	mov    rdx,rax
  403eb7:	31 c0                	xor    eax,eax
  403eb9:	e8 72 d3 ff ff       	call   401230 <__printf_chk@plt>
  403ebe:	e8 1d d3 ff ff       	call   4011e0 <geteuid@plt>
  403ec3:	85 c0                	test   eax,eax
  403ec5:	0f 84 0e d7 ff ff    	je     4015d9 <win+0x63>
  403ecb:	e9 f1 d6 ff ff       	jmp    4015c1 <win+0x4b>
  403ed0:	ba 00 01 00 00       	mov    edx,0x100
  403ed5:	48 89 ee             	mov    rsi,rbp
  403ed8:	e8 23 d3 ff ff       	call   401200 <read@plt>
  403edd:	85 c0                	test   eax,eax
  403edf:	7f 2a                	jg     403f0b <win+0x2995>
  403ee1:	e8 9a d2 ff ff       	call   401180 <__errno_location@plt>
  403ee6:	8b 38                	mov    edi,DWORD PTR [rax]
  403ee8:	e8 93 d3 ff ff       	call   401280 <strerror@plt>
  403eed:	bf 01 00 00 00       	mov    edi,0x1
  403ef2:	48 8d 35 b0 e1 00 00 	lea    rsi,[rip+0xe1b0]        # 4120a9 <_IO_stdin_used+0xa9>
  403ef9:	48 89 c2             	mov    rdx,rax
  403efc:	31 c0                	xor    eax,eax
  403efe:	e8 2d d3 ff ff       	call   401230 <__printf_chk@plt>
  403f03:	83 cf ff             	or     edi,0xffffffff
  403f06:	e8 55 d3 ff ff       	call   401260 <exit@plt>
  403f0b:	48 63 d0             	movsxd rdx,eax
  403f0e:	48 89 ee             	mov    rsi,rbp
  403f11:	bf 01 00 00 00       	mov    edi,0x1
  403f16:	e8 85 d2 ff ff       	call   4011a0 <write@plt>
  403f1b:	48 8d 3d 32 e2 00 00 	lea    rdi,[rip+0xe232]        # 412154 <_IO_stdin_used+0x154>
  403f22:	e8 69 d2 ff ff       	call   401190 <puts@plt>
  403f27:	48 8d 3d d6 e0 00 00 	lea    rdi,[rip+0xe0d6]        # 412004 <_IO_stdin_used+0x4>
  403f2e:	31 f6                	xor    esi,esi
  403f30:	31 c0                	xor    eax,eax
  403f32:	e8 19 d3 ff ff       	call   401250 <open@plt>
  403f37:	89 c7                	mov    edi,eax
  403f39:	85 c0                	test   eax,eax
  403f3b:	79 34                	jns    403f71 <win+0x29fb>
  403f3d:	e8 3e d2 ff ff       	call   401180 <__errno_location@plt>
  403f42:	8b 38                	mov    edi,DWORD PTR [rax]
  403f44:	e8 37 d3 ff ff       	call   401280 <strerror@plt>
  403f49:	48 8d 35 ba e0 00 00 	lea    rsi,[rip+0xe0ba]        # 41200a <_IO_stdin_used+0xa>
  403f50:	bf 01 00 00 00       	mov    edi,0x1
  403f55:	48 89 c2             	mov    rdx,rax
  403f58:	31 c0                	xor    eax,eax
  403f5a:	e8 d1 d2 ff ff       	call   401230 <__printf_chk@plt>
  403f5f:	e8 7c d2 ff ff       	call   4011e0 <geteuid@plt>
  403f64:	85 c0                	test   eax,eax
  403f66:	0f 84 6d d6 ff ff    	je     4015d9 <win+0x63>
  403f6c:	e9 50 d6 ff ff       	jmp    4015c1 <win+0x4b>
  403f71:	ba 00 01 00 00       	mov    edx,0x100
  403f76:	48 89 ee             	mov    rsi,rbp
  403f79:	e8 82 d2 ff ff       	call   401200 <read@plt>
  403f7e:	85 c0                	test   eax,eax
  403f80:	7f 2a                	jg     403fac <win+0x2a36>
  403f82:	e8 f9 d1 ff ff       	call   401180 <__errno_location@plt>
  403f87:	8b 38                	mov    edi,DWORD PTR [rax]
  403f89:	e8 f2 d2 ff ff       	call   401280 <strerror@plt>
  403f8e:	bf 01 00 00 00       	mov    edi,0x1
  403f93:	48 8d 35 0f e1 00 00 	lea    rsi,[rip+0xe10f]        # 4120a9 <_IO_stdin_used+0xa9>
  403f9a:	48 89 c2             	mov    rdx,rax
  403f9d:	31 c0                	xor    eax,eax
  403f9f:	e8 8c d2 ff ff       	call   401230 <__printf_chk@plt>
  403fa4:	83 cf ff             	or     edi,0xffffffff
  403fa7:	e8 b4 d2 ff ff       	call   401260 <exit@plt>
  403fac:	48 63 d0             	movsxd rdx,eax
  403faf:	48 89 ee             	mov    rsi,rbp
  403fb2:	bf 01 00 00 00       	mov    edi,0x1
  403fb7:	e8 e4 d1 ff ff       	call   4011a0 <write@plt>
  403fbc:	48 8d 3d 91 e1 00 00 	lea    rdi,[rip+0xe191]        # 412154 <_IO_stdin_used+0x154>
  403fc3:	e8 c8 d1 ff ff       	call   401190 <puts@plt>
  403fc8:	48 8d 3d 35 e0 00 00 	lea    rdi,[rip+0xe035]        # 412004 <_IO_stdin_used+0x4>
  403fcf:	31 f6                	xor    esi,esi
  403fd1:	31 c0                	xor    eax,eax
  403fd3:	e8 78 d2 ff ff       	call   401250 <open@plt>
  403fd8:	89 c7                	mov    edi,eax
  403fda:	85 c0                	test   eax,eax
  403fdc:	79 34                	jns    404012 <win+0x2a9c>
  403fde:	e8 9d d1 ff ff       	call   401180 <__errno_location@plt>
  403fe3:	8b 38                	mov    edi,DWORD PTR [rax]
  403fe5:	e8 96 d2 ff ff       	call   401280 <strerror@plt>
  403fea:	48 8d 35 19 e0 00 00 	lea    rsi,[rip+0xe019]        # 41200a <_IO_stdin_used+0xa>
  403ff1:	bf 01 00 00 00       	mov    edi,0x1
  403ff6:	48 89 c2             	mov    rdx,rax
  403ff9:	31 c0                	xor    eax,eax
  403ffb:	e8 30 d2 ff ff       	call   401230 <__printf_chk@plt>
  404000:	e8 db d1 ff ff       	call   4011e0 <geteuid@plt>
  404005:	85 c0                	test   eax,eax
  404007:	0f 84 cc d5 ff ff    	je     4015d9 <win+0x63>
  40400d:	e9 af d5 ff ff       	jmp    4015c1 <win+0x4b>
  404012:	ba 00 01 00 00       	mov    edx,0x100
  404017:	48 89 ee             	mov    rsi,rbp
  40401a:	e8 e1 d1 ff ff       	call   401200 <read@plt>
  40401f:	85 c0                	test   eax,eax
  404021:	7f 2a                	jg     40404d <win+0x2ad7>
  404023:	e8 58 d1 ff ff       	call   401180 <__errno_location@plt>
  404028:	8b 38                	mov    edi,DWORD PTR [rax]
  40402a:	e8 51 d2 ff ff       	call   401280 <strerror@plt>
  40402f:	bf 01 00 00 00       	mov    edi,0x1
  404034:	48 8d 35 6e e0 00 00 	lea    rsi,[rip+0xe06e]        # 4120a9 <_IO_stdin_used+0xa9>
  40403b:	48 89 c2             	mov    rdx,rax
  40403e:	31 c0                	xor    eax,eax
  404040:	e8 eb d1 ff ff       	call   401230 <__printf_chk@plt>
  404045:	83 cf ff             	or     edi,0xffffffff
  404048:	e8 13 d2 ff ff       	call   401260 <exit@plt>
  40404d:	48 63 d0             	movsxd rdx,eax
  404050:	48 89 ee             	mov    rsi,rbp
  404053:	bf 01 00 00 00       	mov    edi,0x1
  404058:	e8 43 d1 ff ff       	call   4011a0 <write@plt>
  40405d:	48 8d 3d f0 e0 00 00 	lea    rdi,[rip+0xe0f0]        # 412154 <_IO_stdin_used+0x154>
  404064:	e8 27 d1 ff ff       	call   401190 <puts@plt>
  404069:	48 8d 3d 94 df 00 00 	lea    rdi,[rip+0xdf94]        # 412004 <_IO_stdin_used+0x4>
  404070:	31 f6                	xor    esi,esi
  404072:	31 c0                	xor    eax,eax
  404074:	e8 d7 d1 ff ff       	call   401250 <open@plt>
  404079:	89 c7                	mov    edi,eax
  40407b:	85 c0                	test   eax,eax
  40407d:	79 34                	jns    4040b3 <win+0x2b3d>
  40407f:	e8 fc d0 ff ff       	call   401180 <__errno_location@plt>
  404084:	8b 38                	mov    edi,DWORD PTR [rax]
  404086:	e8 f5 d1 ff ff       	call   401280 <strerror@plt>
  40408b:	48 8d 35 78 df 00 00 	lea    rsi,[rip+0xdf78]        # 41200a <_IO_stdin_used+0xa>
  404092:	bf 01 00 00 00       	mov    edi,0x1
  404097:	48 89 c2             	mov    rdx,rax
  40409a:	31 c0                	xor    eax,eax
  40409c:	e8 8f d1 ff ff       	call   401230 <__printf_chk@plt>
  4040a1:	e8 3a d1 ff ff       	call   4011e0 <geteuid@plt>
  4040a6:	85 c0                	test   eax,eax
  4040a8:	0f 84 2b d5 ff ff    	je     4015d9 <win+0x63>
  4040ae:	e9 0e d5 ff ff       	jmp    4015c1 <win+0x4b>
  4040b3:	ba 00 01 00 00       	mov    edx,0x100
  4040b8:	48 89 ee             	mov    rsi,rbp
  4040bb:	e8 40 d1 ff ff       	call   401200 <read@plt>
  4040c0:	85 c0                	test   eax,eax
  4040c2:	7f 2a                	jg     4040ee <win+0x2b78>
  4040c4:	e8 b7 d0 ff ff       	call   401180 <__errno_location@plt>
  4040c9:	8b 38                	mov    edi,DWORD PTR [rax]
  4040cb:	e8 b0 d1 ff ff       	call   401280 <strerror@plt>
  4040d0:	bf 01 00 00 00       	mov    edi,0x1
  4040d5:	48 8d 35 cd df 00 00 	lea    rsi,[rip+0xdfcd]        # 4120a9 <_IO_stdin_used+0xa9>
  4040dc:	48 89 c2             	mov    rdx,rax
  4040df:	31 c0                	xor    eax,eax
  4040e1:	e8 4a d1 ff ff       	call   401230 <__printf_chk@plt>
  4040e6:	83 cf ff             	or     edi,0xffffffff
  4040e9:	e8 72 d1 ff ff       	call   401260 <exit@plt>
  4040ee:	48 63 d0             	movsxd rdx,eax
  4040f1:	48 89 ee             	mov    rsi,rbp
  4040f4:	bf 01 00 00 00       	mov    edi,0x1
  4040f9:	e8 a2 d0 ff ff       	call   4011a0 <write@plt>
  4040fe:	48 8d 3d 4f e0 00 00 	lea    rdi,[rip+0xe04f]        # 412154 <_IO_stdin_used+0x154>
  404105:	e8 86 d0 ff ff       	call   401190 <puts@plt>
  40410a:	48 8d 3d f3 de 00 00 	lea    rdi,[rip+0xdef3]        # 412004 <_IO_stdin_used+0x4>
  404111:	31 f6                	xor    esi,esi
  404113:	31 c0                	xor    eax,eax
  404115:	e8 36 d1 ff ff       	call   401250 <open@plt>
  40411a:	89 c7                	mov    edi,eax
  40411c:	85 c0                	test   eax,eax
  40411e:	79 34                	jns    404154 <win+0x2bde>
  404120:	e8 5b d0 ff ff       	call   401180 <__errno_location@plt>
  404125:	8b 38                	mov    edi,DWORD PTR [rax]
  404127:	e8 54 d1 ff ff       	call   401280 <strerror@plt>
  40412c:	48 8d 35 d7 de 00 00 	lea    rsi,[rip+0xded7]        # 41200a <_IO_stdin_used+0xa>
  404133:	bf 01 00 00 00       	mov    edi,0x1
  404138:	48 89 c2             	mov    rdx,rax
  40413b:	31 c0                	xor    eax,eax
  40413d:	e8 ee d0 ff ff       	call   401230 <__printf_chk@plt>
  404142:	e8 99 d0 ff ff       	call   4011e0 <geteuid@plt>
  404147:	85 c0                	test   eax,eax
  404149:	0f 84 8a d4 ff ff    	je     4015d9 <win+0x63>
  40414f:	e9 6d d4 ff ff       	jmp    4015c1 <win+0x4b>
  404154:	ba 00 01 00 00       	mov    edx,0x100
  404159:	48 89 ee             	mov    rsi,rbp
  40415c:	e8 9f d0 ff ff       	call   401200 <read@plt>
  404161:	85 c0                	test   eax,eax
  404163:	7f 2a                	jg     40418f <win+0x2c19>
  404165:	e8 16 d0 ff ff       	call   401180 <__errno_location@plt>
  40416a:	8b 38                	mov    edi,DWORD PTR [rax]
  40416c:	e8 0f d1 ff ff       	call   401280 <strerror@plt>
  404171:	bf 01 00 00 00       	mov    edi,0x1
  404176:	48 8d 35 2c df 00 00 	lea    rsi,[rip+0xdf2c]        # 4120a9 <_IO_stdin_used+0xa9>
  40417d:	48 89 c2             	mov    rdx,rax
  404180:	31 c0                	xor    eax,eax
  404182:	e8 a9 d0 ff ff       	call   401230 <__printf_chk@plt>
  404187:	83 cf ff             	or     edi,0xffffffff
  40418a:	e8 d1 d0 ff ff       	call   401260 <exit@plt>
  40418f:	48 63 d0             	movsxd rdx,eax
  404192:	48 89 ee             	mov    rsi,rbp
  404195:	bf 01 00 00 00       	mov    edi,0x1
  40419a:	e8 01 d0 ff ff       	call   4011a0 <write@plt>
  40419f:	48 8d 3d ae df 00 00 	lea    rdi,[rip+0xdfae]        # 412154 <_IO_stdin_used+0x154>
  4041a6:	e8 e5 cf ff ff       	call   401190 <puts@plt>
  4041ab:	48 8d 3d 52 de 00 00 	lea    rdi,[rip+0xde52]        # 412004 <_IO_stdin_used+0x4>
  4041b2:	31 f6                	xor    esi,esi
  4041b4:	31 c0                	xor    eax,eax
  4041b6:	e8 95 d0 ff ff       	call   401250 <open@plt>
  4041bb:	89 c7                	mov    edi,eax
  4041bd:	85 c0                	test   eax,eax
  4041bf:	79 34                	jns    4041f5 <win+0x2c7f>
  4041c1:	e8 ba cf ff ff       	call   401180 <__errno_location@plt>
  4041c6:	8b 38                	mov    edi,DWORD PTR [rax]
  4041c8:	e8 b3 d0 ff ff       	call   401280 <strerror@plt>
  4041cd:	48 8d 35 36 de 00 00 	lea    rsi,[rip+0xde36]        # 41200a <_IO_stdin_used+0xa>
  4041d4:	bf 01 00 00 00       	mov    edi,0x1
  4041d9:	48 89 c2             	mov    rdx,rax
  4041dc:	31 c0                	xor    eax,eax
  4041de:	e8 4d d0 ff ff       	call   401230 <__printf_chk@plt>
  4041e3:	e8 f8 cf ff ff       	call   4011e0 <geteuid@plt>
  4041e8:	85 c0                	test   eax,eax
  4041ea:	0f 84 e9 d3 ff ff    	je     4015d9 <win+0x63>
  4041f0:	e9 cc d3 ff ff       	jmp    4015c1 <win+0x4b>
  4041f5:	ba 00 01 00 00       	mov    edx,0x100
  4041fa:	48 89 ee             	mov    rsi,rbp
  4041fd:	e8 fe cf ff ff       	call   401200 <read@plt>
  404202:	85 c0                	test   eax,eax
  404204:	7f 2a                	jg     404230 <win+0x2cba>
  404206:	e8 75 cf ff ff       	call   401180 <__errno_location@plt>
  40420b:	8b 38                	mov    edi,DWORD PTR [rax]
  40420d:	e8 6e d0 ff ff       	call   401280 <strerror@plt>
  404212:	bf 01 00 00 00       	mov    edi,0x1
  404217:	48 8d 35 8b de 00 00 	lea    rsi,[rip+0xde8b]        # 4120a9 <_IO_stdin_used+0xa9>
  40421e:	48 89 c2             	mov    rdx,rax
  404221:	31 c0                	xor    eax,eax
  404223:	e8 08 d0 ff ff       	call   401230 <__printf_chk@plt>
  404228:	83 cf ff             	or     edi,0xffffffff
  40422b:	e8 30 d0 ff ff       	call   401260 <exit@plt>
  404230:	48 63 d0             	movsxd rdx,eax
  404233:	48 89 ee             	mov    rsi,rbp
  404236:	bf 01 00 00 00       	mov    edi,0x1
  40423b:	e8 60 cf ff ff       	call   4011a0 <write@plt>
  404240:	48 8d 3d 0d df 00 00 	lea    rdi,[rip+0xdf0d]        # 412154 <_IO_stdin_used+0x154>
  404247:	e8 44 cf ff ff       	call   401190 <puts@plt>
  40424c:	48 8d 3d b1 dd 00 00 	lea    rdi,[rip+0xddb1]        # 412004 <_IO_stdin_used+0x4>
  404253:	31 f6                	xor    esi,esi
  404255:	31 c0                	xor    eax,eax
  404257:	e8 f4 cf ff ff       	call   401250 <open@plt>
  40425c:	89 c7                	mov    edi,eax
  40425e:	85 c0                	test   eax,eax
  404260:	79 34                	jns    404296 <win+0x2d20>
  404262:	e8 19 cf ff ff       	call   401180 <__errno_location@plt>
  404267:	8b 38                	mov    edi,DWORD PTR [rax]
  404269:	e8 12 d0 ff ff       	call   401280 <strerror@plt>
  40426e:	48 8d 35 95 dd 00 00 	lea    rsi,[rip+0xdd95]        # 41200a <_IO_stdin_used+0xa>
  404275:	bf 01 00 00 00       	mov    edi,0x1
  40427a:	48 89 c2             	mov    rdx,rax
  40427d:	31 c0                	xor    eax,eax
  40427f:	e8 ac cf ff ff       	call   401230 <__printf_chk@plt>
  404284:	e8 57 cf ff ff       	call   4011e0 <geteuid@plt>
  404289:	85 c0                	test   eax,eax
  40428b:	0f 84 48 d3 ff ff    	je     4015d9 <win+0x63>
  404291:	e9 2b d3 ff ff       	jmp    4015c1 <win+0x4b>
  404296:	ba 00 01 00 00       	mov    edx,0x100
  40429b:	48 89 ee             	mov    rsi,rbp
  40429e:	e8 5d cf ff ff       	call   401200 <read@plt>
  4042a3:	85 c0                	test   eax,eax
  4042a5:	7f 2a                	jg     4042d1 <win+0x2d5b>
  4042a7:	e8 d4 ce ff ff       	call   401180 <__errno_location@plt>
  4042ac:	8b 38                	mov    edi,DWORD PTR [rax]
  4042ae:	e8 cd cf ff ff       	call   401280 <strerror@plt>
  4042b3:	bf 01 00 00 00       	mov    edi,0x1
  4042b8:	48 8d 35 ea dd 00 00 	lea    rsi,[rip+0xddea]        # 4120a9 <_IO_stdin_used+0xa9>
  4042bf:	48 89 c2             	mov    rdx,rax
  4042c2:	31 c0                	xor    eax,eax
  4042c4:	e8 67 cf ff ff       	call   401230 <__printf_chk@plt>
  4042c9:	83 cf ff             	or     edi,0xffffffff
  4042cc:	e8 8f cf ff ff       	call   401260 <exit@plt>
  4042d1:	48 63 d0             	movsxd rdx,eax
  4042d4:	48 89 ee             	mov    rsi,rbp
  4042d7:	bf 01 00 00 00       	mov    edi,0x1
  4042dc:	e8 bf ce ff ff       	call   4011a0 <write@plt>
  4042e1:	48 8d 3d 6c de 00 00 	lea    rdi,[rip+0xde6c]        # 412154 <_IO_stdin_used+0x154>
  4042e8:	e8 a3 ce ff ff       	call   401190 <puts@plt>
  4042ed:	48 8d 3d 10 dd 00 00 	lea    rdi,[rip+0xdd10]        # 412004 <_IO_stdin_used+0x4>
  4042f4:	31 f6                	xor    esi,esi
  4042f6:	31 c0                	xor    eax,eax
  4042f8:	e8 53 cf ff ff       	call   401250 <open@plt>
  4042fd:	89 c7                	mov    edi,eax
  4042ff:	85 c0                	test   eax,eax
  404301:	79 34                	jns    404337 <win+0x2dc1>
  404303:	e8 78 ce ff ff       	call   401180 <__errno_location@plt>
  404308:	8b 38                	mov    edi,DWORD PTR [rax]
  40430a:	e8 71 cf ff ff       	call   401280 <strerror@plt>
  40430f:	48 8d 35 f4 dc 00 00 	lea    rsi,[rip+0xdcf4]        # 41200a <_IO_stdin_used+0xa>
  404316:	bf 01 00 00 00       	mov    edi,0x1
  40431b:	48 89 c2             	mov    rdx,rax
  40431e:	31 c0                	xor    eax,eax
  404320:	e8 0b cf ff ff       	call   401230 <__printf_chk@plt>
  404325:	e8 b6 ce ff ff       	call   4011e0 <geteuid@plt>
  40432a:	85 c0                	test   eax,eax
  40432c:	0f 84 a7 d2 ff ff    	je     4015d9 <win+0x63>
  404332:	e9 8a d2 ff ff       	jmp    4015c1 <win+0x4b>
  404337:	ba 00 01 00 00       	mov    edx,0x100
  40433c:	48 89 ee             	mov    rsi,rbp
  40433f:	e8 bc ce ff ff       	call   401200 <read@plt>
  404344:	85 c0                	test   eax,eax
  404346:	7f 2a                	jg     404372 <win+0x2dfc>
  404348:	e8 33 ce ff ff       	call   401180 <__errno_location@plt>
  40434d:	8b 38                	mov    edi,DWORD PTR [rax]
  40434f:	e8 2c cf ff ff       	call   401280 <strerror@plt>
  404354:	bf 01 00 00 00       	mov    edi,0x1
  404359:	48 8d 35 49 dd 00 00 	lea    rsi,[rip+0xdd49]        # 4120a9 <_IO_stdin_used+0xa9>
  404360:	48 89 c2             	mov    rdx,rax
  404363:	31 c0                	xor    eax,eax
  404365:	e8 c6 ce ff ff       	call   401230 <__printf_chk@plt>
  40436a:	83 cf ff             	or     edi,0xffffffff
  40436d:	e8 ee ce ff ff       	call   401260 <exit@plt>
  404372:	48 63 d0             	movsxd rdx,eax
  404375:	48 89 ee             	mov    rsi,rbp
  404378:	bf 01 00 00 00       	mov    edi,0x1
  40437d:	e8 1e ce ff ff       	call   4011a0 <write@plt>
  404382:	48 8d 3d cb dd 00 00 	lea    rdi,[rip+0xddcb]        # 412154 <_IO_stdin_used+0x154>
  404389:	e8 02 ce ff ff       	call   401190 <puts@plt>
  40438e:	48 8d 3d 6f dc 00 00 	lea    rdi,[rip+0xdc6f]        # 412004 <_IO_stdin_used+0x4>
  404395:	31 f6                	xor    esi,esi
  404397:	31 c0                	xor    eax,eax
  404399:	e8 b2 ce ff ff       	call   401250 <open@plt>
  40439e:	89 c7                	mov    edi,eax
  4043a0:	85 c0                	test   eax,eax
  4043a2:	79 34                	jns    4043d8 <win+0x2e62>
  4043a4:	e8 d7 cd ff ff       	call   401180 <__errno_location@plt>
  4043a9:	8b 38                	mov    edi,DWORD PTR [rax]
  4043ab:	e8 d0 ce ff ff       	call   401280 <strerror@plt>
  4043b0:	48 8d 35 53 dc 00 00 	lea    rsi,[rip+0xdc53]        # 41200a <_IO_stdin_used+0xa>
  4043b7:	bf 01 00 00 00       	mov    edi,0x1
  4043bc:	48 89 c2             	mov    rdx,rax
  4043bf:	31 c0                	xor    eax,eax
  4043c1:	e8 6a ce ff ff       	call   401230 <__printf_chk@plt>
  4043c6:	e8 15 ce ff ff       	call   4011e0 <geteuid@plt>
  4043cb:	85 c0                	test   eax,eax
  4043cd:	0f 84 06 d2 ff ff    	je     4015d9 <win+0x63>
  4043d3:	e9 e9 d1 ff ff       	jmp    4015c1 <win+0x4b>
  4043d8:	ba 00 01 00 00       	mov    edx,0x100
  4043dd:	48 89 ee             	mov    rsi,rbp
  4043e0:	e8 1b ce ff ff       	call   401200 <read@plt>
  4043e5:	85 c0                	test   eax,eax
  4043e7:	7f 2a                	jg     404413 <win+0x2e9d>
  4043e9:	e8 92 cd ff ff       	call   401180 <__errno_location@plt>
  4043ee:	8b 38                	mov    edi,DWORD PTR [rax]
  4043f0:	e8 8b ce ff ff       	call   401280 <strerror@plt>
  4043f5:	bf 01 00 00 00       	mov    edi,0x1
  4043fa:	48 8d 35 a8 dc 00 00 	lea    rsi,[rip+0xdca8]        # 4120a9 <_IO_stdin_used+0xa9>
  404401:	48 89 c2             	mov    rdx,rax
  404404:	31 c0                	xor    eax,eax
  404406:	e8 25 ce ff ff       	call   401230 <__printf_chk@plt>
  40440b:	83 cf ff             	or     edi,0xffffffff
  40440e:	e8 4d ce ff ff       	call   401260 <exit@plt>
  404413:	48 63 d0             	movsxd rdx,eax
  404416:	48 89 ee             	mov    rsi,rbp
  404419:	bf 01 00 00 00       	mov    edi,0x1
  40441e:	e8 7d cd ff ff       	call   4011a0 <write@plt>
  404423:	48 8d 3d 2a dd 00 00 	lea    rdi,[rip+0xdd2a]        # 412154 <_IO_stdin_used+0x154>
  40442a:	e8 61 cd ff ff       	call   401190 <puts@plt>
  40442f:	48 8d 3d ce db 00 00 	lea    rdi,[rip+0xdbce]        # 412004 <_IO_stdin_used+0x4>
  404436:	31 f6                	xor    esi,esi
  404438:	31 c0                	xor    eax,eax
  40443a:	e8 11 ce ff ff       	call   401250 <open@plt>
  40443f:	89 c7                	mov    edi,eax
  404441:	85 c0                	test   eax,eax
  404443:	79 34                	jns    404479 <win+0x2f03>
  404445:	e8 36 cd ff ff       	call   401180 <__errno_location@plt>
  40444a:	8b 38                	mov    edi,DWORD PTR [rax]
  40444c:	e8 2f ce ff ff       	call   401280 <strerror@plt>
  404451:	48 8d 35 b2 db 00 00 	lea    rsi,[rip+0xdbb2]        # 41200a <_IO_stdin_used+0xa>
  404458:	bf 01 00 00 00       	mov    edi,0x1
  40445d:	48 89 c2             	mov    rdx,rax
  404460:	31 c0                	xor    eax,eax
  404462:	e8 c9 cd ff ff       	call   401230 <__printf_chk@plt>
  404467:	e8 74 cd ff ff       	call   4011e0 <geteuid@plt>
  40446c:	85 c0                	test   eax,eax
  40446e:	0f 84 65 d1 ff ff    	je     4015d9 <win+0x63>
  404474:	e9 48 d1 ff ff       	jmp    4015c1 <win+0x4b>
  404479:	ba 00 01 00 00       	mov    edx,0x100
  40447e:	48 89 ee             	mov    rsi,rbp
  404481:	e8 7a cd ff ff       	call   401200 <read@plt>
  404486:	85 c0                	test   eax,eax
  404488:	7f 2a                	jg     4044b4 <win+0x2f3e>
  40448a:	e8 f1 cc ff ff       	call   401180 <__errno_location@plt>
  40448f:	8b 38                	mov    edi,DWORD PTR [rax]
  404491:	e8 ea cd ff ff       	call   401280 <strerror@plt>
  404496:	bf 01 00 00 00       	mov    edi,0x1
  40449b:	48 8d 35 07 dc 00 00 	lea    rsi,[rip+0xdc07]        # 4120a9 <_IO_stdin_used+0xa9>
  4044a2:	48 89 c2             	mov    rdx,rax
  4044a5:	31 c0                	xor    eax,eax
  4044a7:	e8 84 cd ff ff       	call   401230 <__printf_chk@plt>
  4044ac:	83 cf ff             	or     edi,0xffffffff
  4044af:	e8 ac cd ff ff       	call   401260 <exit@plt>
  4044b4:	48 63 d0             	movsxd rdx,eax
  4044b7:	48 89 ee             	mov    rsi,rbp
  4044ba:	bf 01 00 00 00       	mov    edi,0x1
  4044bf:	e8 dc cc ff ff       	call   4011a0 <write@plt>
  4044c4:	48 8d 3d 89 dc 00 00 	lea    rdi,[rip+0xdc89]        # 412154 <_IO_stdin_used+0x154>
  4044cb:	e8 c0 cc ff ff       	call   401190 <puts@plt>
  4044d0:	48 8d 3d 2d db 00 00 	lea    rdi,[rip+0xdb2d]        # 412004 <_IO_stdin_used+0x4>
  4044d7:	31 f6                	xor    esi,esi
  4044d9:	31 c0                	xor    eax,eax
  4044db:	e8 70 cd ff ff       	call   401250 <open@plt>
  4044e0:	89 c7                	mov    edi,eax
  4044e2:	85 c0                	test   eax,eax
  4044e4:	79 34                	jns    40451a <win+0x2fa4>
  4044e6:	e8 95 cc ff ff       	call   401180 <__errno_location@plt>
  4044eb:	8b 38                	mov    edi,DWORD PTR [rax]
  4044ed:	e8 8e cd ff ff       	call   401280 <strerror@plt>
  4044f2:	48 8d 35 11 db 00 00 	lea    rsi,[rip+0xdb11]        # 41200a <_IO_stdin_used+0xa>
  4044f9:	bf 01 00 00 00       	mov    edi,0x1
  4044fe:	48 89 c2             	mov    rdx,rax
  404501:	31 c0                	xor    eax,eax
  404503:	e8 28 cd ff ff       	call   401230 <__printf_chk@plt>
  404508:	e8 d3 cc ff ff       	call   4011e0 <geteuid@plt>
  40450d:	85 c0                	test   eax,eax
  40450f:	0f 84 c4 d0 ff ff    	je     4015d9 <win+0x63>
  404515:	e9 a7 d0 ff ff       	jmp    4015c1 <win+0x4b>
  40451a:	ba 00 01 00 00       	mov    edx,0x100
  40451f:	48 89 ee             	mov    rsi,rbp
  404522:	e8 d9 cc ff ff       	call   401200 <read@plt>
  404527:	85 c0                	test   eax,eax
  404529:	7f 2a                	jg     404555 <win+0x2fdf>
  40452b:	e8 50 cc ff ff       	call   401180 <__errno_location@plt>
  404530:	8b 38                	mov    edi,DWORD PTR [rax]
  404532:	e8 49 cd ff ff       	call   401280 <strerror@plt>
  404537:	bf 01 00 00 00       	mov    edi,0x1
  40453c:	48 8d 35 66 db 00 00 	lea    rsi,[rip+0xdb66]        # 4120a9 <_IO_stdin_used+0xa9>
  404543:	48 89 c2             	mov    rdx,rax
  404546:	31 c0                	xor    eax,eax
  404548:	e8 e3 cc ff ff       	call   401230 <__printf_chk@plt>
  40454d:	83 cf ff             	or     edi,0xffffffff
  404550:	e8 0b cd ff ff       	call   401260 <exit@plt>
  404555:	48 63 d0             	movsxd rdx,eax
  404558:	48 89 ee             	mov    rsi,rbp
  40455b:	bf 01 00 00 00       	mov    edi,0x1
  404560:	e8 3b cc ff ff       	call   4011a0 <write@plt>
  404565:	48 8d 3d e8 db 00 00 	lea    rdi,[rip+0xdbe8]        # 412154 <_IO_stdin_used+0x154>
  40456c:	e8 1f cc ff ff       	call   401190 <puts@plt>
  404571:	48 8d 3d 8c da 00 00 	lea    rdi,[rip+0xda8c]        # 412004 <_IO_stdin_used+0x4>
  404578:	31 f6                	xor    esi,esi
  40457a:	31 c0                	xor    eax,eax
  40457c:	e8 cf cc ff ff       	call   401250 <open@plt>
  404581:	89 c7                	mov    edi,eax
  404583:	85 c0                	test   eax,eax
  404585:	79 34                	jns    4045bb <win+0x3045>
  404587:	e8 f4 cb ff ff       	call   401180 <__errno_location@plt>
  40458c:	8b 38                	mov    edi,DWORD PTR [rax]
  40458e:	e8 ed cc ff ff       	call   401280 <strerror@plt>
  404593:	48 8d 35 70 da 00 00 	lea    rsi,[rip+0xda70]        # 41200a <_IO_stdin_used+0xa>
  40459a:	bf 01 00 00 00       	mov    edi,0x1
  40459f:	48 89 c2             	mov    rdx,rax
  4045a2:	31 c0                	xor    eax,eax
  4045a4:	e8 87 cc ff ff       	call   401230 <__printf_chk@plt>
  4045a9:	e8 32 cc ff ff       	call   4011e0 <geteuid@plt>
  4045ae:	85 c0                	test   eax,eax
  4045b0:	0f 84 23 d0 ff ff    	je     4015d9 <win+0x63>
  4045b6:	e9 06 d0 ff ff       	jmp    4015c1 <win+0x4b>
  4045bb:	ba 00 01 00 00       	mov    edx,0x100
  4045c0:	48 89 ee             	mov    rsi,rbp
  4045c3:	e8 38 cc ff ff       	call   401200 <read@plt>
  4045c8:	85 c0                	test   eax,eax
  4045ca:	7f 2a                	jg     4045f6 <win+0x3080>
  4045cc:	e8 af cb ff ff       	call   401180 <__errno_location@plt>
  4045d1:	8b 38                	mov    edi,DWORD PTR [rax]
  4045d3:	e8 a8 cc ff ff       	call   401280 <strerror@plt>
  4045d8:	bf 01 00 00 00       	mov    edi,0x1
  4045dd:	48 8d 35 c5 da 00 00 	lea    rsi,[rip+0xdac5]        # 4120a9 <_IO_stdin_used+0xa9>
  4045e4:	48 89 c2             	mov    rdx,rax
  4045e7:	31 c0                	xor    eax,eax
  4045e9:	e8 42 cc ff ff       	call   401230 <__printf_chk@plt>
  4045ee:	83 cf ff             	or     edi,0xffffffff
  4045f1:	e8 6a cc ff ff       	call   401260 <exit@plt>
  4045f6:	48 63 d0             	movsxd rdx,eax
  4045f9:	48 89 ee             	mov    rsi,rbp
  4045fc:	bf 01 00 00 00       	mov    edi,0x1
  404601:	e8 9a cb ff ff       	call   4011a0 <write@plt>
  404606:	48 8d 3d 47 db 00 00 	lea    rdi,[rip+0xdb47]        # 412154 <_IO_stdin_used+0x154>
  40460d:	e8 7e cb ff ff       	call   401190 <puts@plt>
  404612:	48 8d 3d eb d9 00 00 	lea    rdi,[rip+0xd9eb]        # 412004 <_IO_stdin_used+0x4>
  404619:	31 f6                	xor    esi,esi
  40461b:	31 c0                	xor    eax,eax
  40461d:	e8 2e cc ff ff       	call   401250 <open@plt>
  404622:	89 c7                	mov    edi,eax
  404624:	85 c0                	test   eax,eax
  404626:	79 34                	jns    40465c <win+0x30e6>
  404628:	e8 53 cb ff ff       	call   401180 <__errno_location@plt>
  40462d:	8b 38                	mov    edi,DWORD PTR [rax]
  40462f:	e8 4c cc ff ff       	call   401280 <strerror@plt>
  404634:	48 8d 35 cf d9 00 00 	lea    rsi,[rip+0xd9cf]        # 41200a <_IO_stdin_used+0xa>
  40463b:	bf 01 00 00 00       	mov    edi,0x1
  404640:	48 89 c2             	mov    rdx,rax
  404643:	31 c0                	xor    eax,eax
  404645:	e8 e6 cb ff ff       	call   401230 <__printf_chk@plt>
  40464a:	e8 91 cb ff ff       	call   4011e0 <geteuid@plt>
  40464f:	85 c0                	test   eax,eax
  404651:	0f 84 82 cf ff ff    	je     4015d9 <win+0x63>
  404657:	e9 65 cf ff ff       	jmp    4015c1 <win+0x4b>
  40465c:	ba 00 01 00 00       	mov    edx,0x100
  404661:	48 89 ee             	mov    rsi,rbp
  404664:	e8 97 cb ff ff       	call   401200 <read@plt>
  404669:	85 c0                	test   eax,eax
  40466b:	7f 2a                	jg     404697 <win+0x3121>
  40466d:	e8 0e cb ff ff       	call   401180 <__errno_location@plt>
  404672:	8b 38                	mov    edi,DWORD PTR [rax]
  404674:	e8 07 cc ff ff       	call   401280 <strerror@plt>
  404679:	bf 01 00 00 00       	mov    edi,0x1
  40467e:	48 8d 35 24 da 00 00 	lea    rsi,[rip+0xda24]        # 4120a9 <_IO_stdin_used+0xa9>
  404685:	48 89 c2             	mov    rdx,rax
  404688:	31 c0                	xor    eax,eax
  40468a:	e8 a1 cb ff ff       	call   401230 <__printf_chk@plt>
  40468f:	83 cf ff             	or     edi,0xffffffff
  404692:	e8 c9 cb ff ff       	call   401260 <exit@plt>
  404697:	48 63 d0             	movsxd rdx,eax
  40469a:	48 89 ee             	mov    rsi,rbp
  40469d:	bf 01 00 00 00       	mov    edi,0x1
  4046a2:	e8 f9 ca ff ff       	call   4011a0 <write@plt>
  4046a7:	48 8d 3d a6 da 00 00 	lea    rdi,[rip+0xdaa6]        # 412154 <_IO_stdin_used+0x154>
  4046ae:	e8 dd ca ff ff       	call   401190 <puts@plt>
  4046b3:	48 8d 3d 4a d9 00 00 	lea    rdi,[rip+0xd94a]        # 412004 <_IO_stdin_used+0x4>
  4046ba:	31 f6                	xor    esi,esi
  4046bc:	31 c0                	xor    eax,eax
  4046be:	e8 8d cb ff ff       	call   401250 <open@plt>
  4046c3:	89 c7                	mov    edi,eax
  4046c5:	85 c0                	test   eax,eax
  4046c7:	79 34                	jns    4046fd <win+0x3187>
  4046c9:	e8 b2 ca ff ff       	call   401180 <__errno_location@plt>
  4046ce:	8b 38                	mov    edi,DWORD PTR [rax]
  4046d0:	e8 ab cb ff ff       	call   401280 <strerror@plt>
  4046d5:	48 8d 35 2e d9 00 00 	lea    rsi,[rip+0xd92e]        # 41200a <_IO_stdin_used+0xa>
  4046dc:	bf 01 00 00 00       	mov    edi,0x1
  4046e1:	48 89 c2             	mov    rdx,rax
  4046e4:	31 c0                	xor    eax,eax
  4046e6:	e8 45 cb ff ff       	call   401230 <__printf_chk@plt>
  4046eb:	e8 f0 ca ff ff       	call   4011e0 <geteuid@plt>
  4046f0:	85 c0                	test   eax,eax
  4046f2:	0f 84 e1 ce ff ff    	je     4015d9 <win+0x63>
  4046f8:	e9 c4 ce ff ff       	jmp    4015c1 <win+0x4b>
  4046fd:	ba 00 01 00 00       	mov    edx,0x100
  404702:	48 89 ee             	mov    rsi,rbp
  404705:	e8 f6 ca ff ff       	call   401200 <read@plt>
  40470a:	85 c0                	test   eax,eax
  40470c:	7f 2a                	jg     404738 <win+0x31c2>
  40470e:	e8 6d ca ff ff       	call   401180 <__errno_location@plt>
  404713:	8b 38                	mov    edi,DWORD PTR [rax]
  404715:	e8 66 cb ff ff       	call   401280 <strerror@plt>
  40471a:	bf 01 00 00 00       	mov    edi,0x1
  40471f:	48 8d 35 83 d9 00 00 	lea    rsi,[rip+0xd983]        # 4120a9 <_IO_stdin_used+0xa9>
  404726:	48 89 c2             	mov    rdx,rax
  404729:	31 c0                	xor    eax,eax
  40472b:	e8 00 cb ff ff       	call   401230 <__printf_chk@plt>
  404730:	83 cf ff             	or     edi,0xffffffff
  404733:	e8 28 cb ff ff       	call   401260 <exit@plt>
  404738:	48 63 d0             	movsxd rdx,eax
  40473b:	48 89 ee             	mov    rsi,rbp
  40473e:	bf 01 00 00 00       	mov    edi,0x1
  404743:	e8 58 ca ff ff       	call   4011a0 <write@plt>
  404748:	48 8d 3d 05 da 00 00 	lea    rdi,[rip+0xda05]        # 412154 <_IO_stdin_used+0x154>
  40474f:	e8 3c ca ff ff       	call   401190 <puts@plt>
  404754:	48 8d 3d a9 d8 00 00 	lea    rdi,[rip+0xd8a9]        # 412004 <_IO_stdin_used+0x4>
  40475b:	31 f6                	xor    esi,esi
  40475d:	31 c0                	xor    eax,eax
  40475f:	e8 ec ca ff ff       	call   401250 <open@plt>
  404764:	89 c7                	mov    edi,eax
  404766:	85 c0                	test   eax,eax
  404768:	79 34                	jns    40479e <win+0x3228>
  40476a:	e8 11 ca ff ff       	call   401180 <__errno_location@plt>
  40476f:	8b 38                	mov    edi,DWORD PTR [rax]
  404771:	e8 0a cb ff ff       	call   401280 <strerror@plt>
  404776:	48 8d 35 8d d8 00 00 	lea    rsi,[rip+0xd88d]        # 41200a <_IO_stdin_used+0xa>
  40477d:	bf 01 00 00 00       	mov    edi,0x1
  404782:	48 89 c2             	mov    rdx,rax
  404785:	31 c0                	xor    eax,eax
  404787:	e8 a4 ca ff ff       	call   401230 <__printf_chk@plt>
  40478c:	e8 4f ca ff ff       	call   4011e0 <geteuid@plt>
  404791:	85 c0                	test   eax,eax
  404793:	0f 84 40 ce ff ff    	je     4015d9 <win+0x63>
  404799:	e9 23 ce ff ff       	jmp    4015c1 <win+0x4b>
  40479e:	ba 00 01 00 00       	mov    edx,0x100
  4047a3:	48 89 ee             	mov    rsi,rbp
  4047a6:	e8 55 ca ff ff       	call   401200 <read@plt>
  4047ab:	85 c0                	test   eax,eax
  4047ad:	7f 2a                	jg     4047d9 <win+0x3263>
  4047af:	e8 cc c9 ff ff       	call   401180 <__errno_location@plt>
  4047b4:	8b 38                	mov    edi,DWORD PTR [rax]
  4047b6:	e8 c5 ca ff ff       	call   401280 <strerror@plt>
  4047bb:	bf 01 00 00 00       	mov    edi,0x1
  4047c0:	48 8d 35 e2 d8 00 00 	lea    rsi,[rip+0xd8e2]        # 4120a9 <_IO_stdin_used+0xa9>
  4047c7:	48 89 c2             	mov    rdx,rax
  4047ca:	31 c0                	xor    eax,eax
  4047cc:	e8 5f ca ff ff       	call   401230 <__printf_chk@plt>
  4047d1:	83 cf ff             	or     edi,0xffffffff
  4047d4:	e8 87 ca ff ff       	call   401260 <exit@plt>
  4047d9:	48 89 e5             	mov    rbp,rsp
  4047dc:	48 63 d0             	movsxd rdx,eax
  4047df:	bf 01 00 00 00       	mov    edi,0x1
  4047e4:	48 89 ee             	mov    rsi,rbp
  4047e7:	e8 b4 c9 ff ff       	call   4011a0 <write@plt>
  4047ec:	48 8d 3d 61 d9 00 00 	lea    rdi,[rip+0xd961]        # 412154 <_IO_stdin_used+0x154>
  4047f3:	e8 98 c9 ff ff       	call   401190 <puts@plt>
  4047f8:	48 8d 3d 05 d8 00 00 	lea    rdi,[rip+0xd805]        # 412004 <_IO_stdin_used+0x4>
  4047ff:	31 f6                	xor    esi,esi
  404801:	31 c0                	xor    eax,eax
  404803:	e8 48 ca ff ff       	call   401250 <open@plt>
  404808:	89 c7                	mov    edi,eax
  40480a:	85 c0                	test   eax,eax
  40480c:	79 34                	jns    404842 <win+0x32cc>
  40480e:	e8 6d c9 ff ff       	call   401180 <__errno_location@plt>
  404813:	8b 38                	mov    edi,DWORD PTR [rax]
  404815:	e8 66 ca ff ff       	call   401280 <strerror@plt>
  40481a:	48 8d 35 e9 d7 00 00 	lea    rsi,[rip+0xd7e9]        # 41200a <_IO_stdin_used+0xa>
  404821:	bf 01 00 00 00       	mov    edi,0x1
  404826:	48 89 c2             	mov    rdx,rax
  404829:	31 c0                	xor    eax,eax
  40482b:	e8 00 ca ff ff       	call   401230 <__printf_chk@plt>
  404830:	e8 ab c9 ff ff       	call   4011e0 <geteuid@plt>
  404835:	85 c0                	test   eax,eax
  404837:	0f 84 9c cd ff ff    	je     4015d9 <win+0x63>
  40483d:	e9 7f cd ff ff       	jmp    4015c1 <win+0x4b>
  404842:	ba 00 01 00 00       	mov    edx,0x100
  404847:	48 89 ee             	mov    rsi,rbp
  40484a:	e8 b1 c9 ff ff       	call   401200 <read@plt>
  40484f:	85 c0                	test   eax,eax
  404851:	7f 2a                	jg     40487d <win+0x3307>
  404853:	e8 28 c9 ff ff       	call   401180 <__errno_location@plt>
  404858:	8b 38                	mov    edi,DWORD PTR [rax]
  40485a:	e8 21 ca ff ff       	call   401280 <strerror@plt>
  40485f:	bf 01 00 00 00       	mov    edi,0x1
  404864:	48 8d 35 3e d8 00 00 	lea    rsi,[rip+0xd83e]        # 4120a9 <_IO_stdin_used+0xa9>
  40486b:	48 89 c2             	mov    rdx,rax
  40486e:	31 c0                	xor    eax,eax
  404870:	e8 bb c9 ff ff       	call   401230 <__printf_chk@plt>
  404875:	83 cf ff             	or     edi,0xffffffff
  404878:	e8 e3 c9 ff ff       	call   401260 <exit@plt>
  40487d:	48 63 d0             	movsxd rdx,eax
  404880:	48 89 ee             	mov    rsi,rbp
  404883:	bf 01 00 00 00       	mov    edi,0x1
  404888:	e8 13 c9 ff ff       	call   4011a0 <write@plt>
  40488d:	48 8d 3d c0 d8 00 00 	lea    rdi,[rip+0xd8c0]        # 412154 <_IO_stdin_used+0x154>
  404894:	e8 f7 c8 ff ff       	call   401190 <puts@plt>
  404899:	48 8d 3d 64 d7 00 00 	lea    rdi,[rip+0xd764]        # 412004 <_IO_stdin_used+0x4>
  4048a0:	31 f6                	xor    esi,esi
  4048a2:	31 c0                	xor    eax,eax
  4048a4:	e8 a7 c9 ff ff       	call   401250 <open@plt>
  4048a9:	89 c7                	mov    edi,eax
  4048ab:	85 c0                	test   eax,eax
  4048ad:	79 34                	jns    4048e3 <win+0x336d>
  4048af:	e8 cc c8 ff ff       	call   401180 <__errno_location@plt>
  4048b4:	8b 38                	mov    edi,DWORD PTR [rax]
  4048b6:	e8 c5 c9 ff ff       	call   401280 <strerror@plt>
  4048bb:	48 8d 35 48 d7 00 00 	lea    rsi,[rip+0xd748]        # 41200a <_IO_stdin_used+0xa>
  4048c2:	bf 01 00 00 00       	mov    edi,0x1
  4048c7:	48 89 c2             	mov    rdx,rax
  4048ca:	31 c0                	xor    eax,eax
  4048cc:	e8 5f c9 ff ff       	call   401230 <__printf_chk@plt>
  4048d1:	e8 0a c9 ff ff       	call   4011e0 <geteuid@plt>
  4048d6:	85 c0                	test   eax,eax
  4048d8:	0f 84 fb cc ff ff    	je     4015d9 <win+0x63>
  4048de:	e9 de cc ff ff       	jmp    4015c1 <win+0x4b>
  4048e3:	ba 00 01 00 00       	mov    edx,0x100
  4048e8:	48 89 ee             	mov    rsi,rbp
  4048eb:	e8 10 c9 ff ff       	call   401200 <read@plt>
  4048f0:	85 c0                	test   eax,eax
  4048f2:	7f 2a                	jg     40491e <win+0x33a8>
  4048f4:	e8 87 c8 ff ff       	call   401180 <__errno_location@plt>
  4048f9:	8b 38                	mov    edi,DWORD PTR [rax]
  4048fb:	e8 80 c9 ff ff       	call   401280 <strerror@plt>
  404900:	bf 01 00 00 00       	mov    edi,0x1
  404905:	48 8d 35 9d d7 00 00 	lea    rsi,[rip+0xd79d]        # 4120a9 <_IO_stdin_used+0xa9>
  40490c:	48 89 c2             	mov    rdx,rax
  40490f:	31 c0                	xor    eax,eax
  404911:	e8 1a c9 ff ff       	call   401230 <__printf_chk@plt>
  404916:	83 cf ff             	or     edi,0xffffffff
  404919:	e8 42 c9 ff ff       	call   401260 <exit@plt>
  40491e:	48 63 d0             	movsxd rdx,eax
  404921:	48 89 ee             	mov    rsi,rbp
  404924:	bf 01 00 00 00       	mov    edi,0x1
  404929:	e8 72 c8 ff ff       	call   4011a0 <write@plt>
  40492e:	48 8d 3d 1f d8 00 00 	lea    rdi,[rip+0xd81f]        # 412154 <_IO_stdin_used+0x154>
  404935:	e8 56 c8 ff ff       	call   401190 <puts@plt>
  40493a:	48 8d 3d c3 d6 00 00 	lea    rdi,[rip+0xd6c3]        # 412004 <_IO_stdin_used+0x4>
  404941:	31 f6                	xor    esi,esi
  404943:	31 c0                	xor    eax,eax
  404945:	e8 06 c9 ff ff       	call   401250 <open@plt>
  40494a:	89 c7                	mov    edi,eax
  40494c:	85 c0                	test   eax,eax
  40494e:	79 34                	jns    404984 <win+0x340e>
  404950:	e8 2b c8 ff ff       	call   401180 <__errno_location@plt>
  404955:	8b 38                	mov    edi,DWORD PTR [rax]
  404957:	e8 24 c9 ff ff       	call   401280 <strerror@plt>
  40495c:	48 8d 35 a7 d6 00 00 	lea    rsi,[rip+0xd6a7]        # 41200a <_IO_stdin_used+0xa>
  404963:	bf 01 00 00 00       	mov    edi,0x1
  404968:	48 89 c2             	mov    rdx,rax
  40496b:	31 c0                	xor    eax,eax
  40496d:	e8 be c8 ff ff       	call   401230 <__printf_chk@plt>
  404972:	e8 69 c8 ff ff       	call   4011e0 <geteuid@plt>
  404977:	85 c0                	test   eax,eax
  404979:	0f 84 5a cc ff ff    	je     4015d9 <win+0x63>
  40497f:	e9 3d cc ff ff       	jmp    4015c1 <win+0x4b>
  404984:	ba 00 01 00 00       	mov    edx,0x100
  404989:	48 89 ee             	mov    rsi,rbp
  40498c:	e8 6f c8 ff ff       	call   401200 <read@plt>
  404991:	85 c0                	test   eax,eax
  404993:	7f 2a                	jg     4049bf <win+0x3449>
  404995:	e8 e6 c7 ff ff       	call   401180 <__errno_location@plt>
  40499a:	8b 38                	mov    edi,DWORD PTR [rax]
  40499c:	e8 df c8 ff ff       	call   401280 <strerror@plt>
  4049a1:	bf 01 00 00 00       	mov    edi,0x1
  4049a6:	48 8d 35 fc d6 00 00 	lea    rsi,[rip+0xd6fc]        # 4120a9 <_IO_stdin_used+0xa9>
  4049ad:	48 89 c2             	mov    rdx,rax
  4049b0:	31 c0                	xor    eax,eax
  4049b2:	e8 79 c8 ff ff       	call   401230 <__printf_chk@plt>
  4049b7:	83 cf ff             	or     edi,0xffffffff
  4049ba:	e8 a1 c8 ff ff       	call   401260 <exit@plt>
  4049bf:	48 63 d0             	movsxd rdx,eax
  4049c2:	48 89 ee             	mov    rsi,rbp
  4049c5:	bf 01 00 00 00       	mov    edi,0x1
  4049ca:	e8 d1 c7 ff ff       	call   4011a0 <write@plt>
  4049cf:	48 8d 3d 7e d7 00 00 	lea    rdi,[rip+0xd77e]        # 412154 <_IO_stdin_used+0x154>
  4049d6:	e8 b5 c7 ff ff       	call   401190 <puts@plt>
  4049db:	48 8d 3d 22 d6 00 00 	lea    rdi,[rip+0xd622]        # 412004 <_IO_stdin_used+0x4>
  4049e2:	31 f6                	xor    esi,esi
  4049e4:	31 c0                	xor    eax,eax
  4049e6:	e8 65 c8 ff ff       	call   401250 <open@plt>
  4049eb:	89 c7                	mov    edi,eax
  4049ed:	85 c0                	test   eax,eax
  4049ef:	79 34                	jns    404a25 <win+0x34af>
  4049f1:	e8 8a c7 ff ff       	call   401180 <__errno_location@plt>
  4049f6:	8b 38                	mov    edi,DWORD PTR [rax]
  4049f8:	e8 83 c8 ff ff       	call   401280 <strerror@plt>
  4049fd:	48 8d 35 06 d6 00 00 	lea    rsi,[rip+0xd606]        # 41200a <_IO_stdin_used+0xa>
  404a04:	bf 01 00 00 00       	mov    edi,0x1
  404a09:	48 89 c2             	mov    rdx,rax
  404a0c:	31 c0                	xor    eax,eax
  404a0e:	e8 1d c8 ff ff       	call   401230 <__printf_chk@plt>
  404a13:	e8 c8 c7 ff ff       	call   4011e0 <geteuid@plt>
  404a18:	85 c0                	test   eax,eax
  404a1a:	0f 84 b9 cb ff ff    	je     4015d9 <win+0x63>
  404a20:	e9 9c cb ff ff       	jmp    4015c1 <win+0x4b>
  404a25:	ba 00 01 00 00       	mov    edx,0x100
  404a2a:	48 89 ee             	mov    rsi,rbp
  404a2d:	e8 ce c7 ff ff       	call   401200 <read@plt>
  404a32:	85 c0                	test   eax,eax
  404a34:	7f 2a                	jg     404a60 <win+0x34ea>
  404a36:	e8 45 c7 ff ff       	call   401180 <__errno_location@plt>
  404a3b:	8b 38                	mov    edi,DWORD PTR [rax]
  404a3d:	e8 3e c8 ff ff       	call   401280 <strerror@plt>
  404a42:	bf 01 00 00 00       	mov    edi,0x1
  404a47:	48 8d 35 5b d6 00 00 	lea    rsi,[rip+0xd65b]        # 4120a9 <_IO_stdin_used+0xa9>
  404a4e:	48 89 c2             	mov    rdx,rax
  404a51:	31 c0                	xor    eax,eax
  404a53:	e8 d8 c7 ff ff       	call   401230 <__printf_chk@plt>
  404a58:	83 cf ff             	or     edi,0xffffffff
  404a5b:	e8 00 c8 ff ff       	call   401260 <exit@plt>
  404a60:	48 63 d0             	movsxd rdx,eax
  404a63:	48 89 ee             	mov    rsi,rbp
  404a66:	bf 01 00 00 00       	mov    edi,0x1
  404a6b:	e8 30 c7 ff ff       	call   4011a0 <write@plt>
  404a70:	48 8d 3d dd d6 00 00 	lea    rdi,[rip+0xd6dd]        # 412154 <_IO_stdin_used+0x154>
  404a77:	e8 14 c7 ff ff       	call   401190 <puts@plt>
  404a7c:	48 8d 3d 81 d5 00 00 	lea    rdi,[rip+0xd581]        # 412004 <_IO_stdin_used+0x4>
  404a83:	31 f6                	xor    esi,esi
  404a85:	31 c0                	xor    eax,eax
  404a87:	e8 c4 c7 ff ff       	call   401250 <open@plt>
  404a8c:	89 c7                	mov    edi,eax
  404a8e:	85 c0                	test   eax,eax
  404a90:	79 34                	jns    404ac6 <win+0x3550>
  404a92:	e8 e9 c6 ff ff       	call   401180 <__errno_location@plt>
  404a97:	8b 38                	mov    edi,DWORD PTR [rax]
  404a99:	e8 e2 c7 ff ff       	call   401280 <strerror@plt>
  404a9e:	48 8d 35 65 d5 00 00 	lea    rsi,[rip+0xd565]        # 41200a <_IO_stdin_used+0xa>
  404aa5:	bf 01 00 00 00       	mov    edi,0x1
  404aaa:	48 89 c2             	mov    rdx,rax
  404aad:	31 c0                	xor    eax,eax
  404aaf:	e8 7c c7 ff ff       	call   401230 <__printf_chk@plt>
  404ab4:	e8 27 c7 ff ff       	call   4011e0 <geteuid@plt>
  404ab9:	85 c0                	test   eax,eax
  404abb:	0f 84 18 cb ff ff    	je     4015d9 <win+0x63>
  404ac1:	e9 fb ca ff ff       	jmp    4015c1 <win+0x4b>
  404ac6:	ba 00 01 00 00       	mov    edx,0x100
  404acb:	48 89 ee             	mov    rsi,rbp
  404ace:	e8 2d c7 ff ff       	call   401200 <read@plt>
  404ad3:	85 c0                	test   eax,eax
  404ad5:	7f 2a                	jg     404b01 <win+0x358b>
  404ad7:	e8 a4 c6 ff ff       	call   401180 <__errno_location@plt>
  404adc:	8b 38                	mov    edi,DWORD PTR [rax]
  404ade:	e8 9d c7 ff ff       	call   401280 <strerror@plt>
  404ae3:	bf 01 00 00 00       	mov    edi,0x1
  404ae8:	48 8d 35 ba d5 00 00 	lea    rsi,[rip+0xd5ba]        # 4120a9 <_IO_stdin_used+0xa9>
  404aef:	48 89 c2             	mov    rdx,rax
  404af2:	31 c0                	xor    eax,eax
  404af4:	e8 37 c7 ff ff       	call   401230 <__printf_chk@plt>
  404af9:	83 cf ff             	or     edi,0xffffffff
  404afc:	e8 5f c7 ff ff       	call   401260 <exit@plt>
  404b01:	48 63 d0             	movsxd rdx,eax
  404b04:	48 89 ee             	mov    rsi,rbp
  404b07:	bf 01 00 00 00       	mov    edi,0x1
  404b0c:	e8 8f c6 ff ff       	call   4011a0 <write@plt>
  404b11:	48 8d 3d 3c d6 00 00 	lea    rdi,[rip+0xd63c]        # 412154 <_IO_stdin_used+0x154>
  404b18:	e8 73 c6 ff ff       	call   401190 <puts@plt>
  404b1d:	48 8d 3d e0 d4 00 00 	lea    rdi,[rip+0xd4e0]        # 412004 <_IO_stdin_used+0x4>
  404b24:	31 f6                	xor    esi,esi
  404b26:	31 c0                	xor    eax,eax
  404b28:	e8 23 c7 ff ff       	call   401250 <open@plt>
  404b2d:	89 c7                	mov    edi,eax
  404b2f:	85 c0                	test   eax,eax
  404b31:	79 34                	jns    404b67 <win+0x35f1>
  404b33:	e8 48 c6 ff ff       	call   401180 <__errno_location@plt>
  404b38:	8b 38                	mov    edi,DWORD PTR [rax]
  404b3a:	e8 41 c7 ff ff       	call   401280 <strerror@plt>
  404b3f:	48 8d 35 c4 d4 00 00 	lea    rsi,[rip+0xd4c4]        # 41200a <_IO_stdin_used+0xa>
  404b46:	bf 01 00 00 00       	mov    edi,0x1
  404b4b:	48 89 c2             	mov    rdx,rax
  404b4e:	31 c0                	xor    eax,eax
  404b50:	e8 db c6 ff ff       	call   401230 <__printf_chk@plt>
  404b55:	e8 86 c6 ff ff       	call   4011e0 <geteuid@plt>
  404b5a:	85 c0                	test   eax,eax
  404b5c:	0f 84 77 ca ff ff    	je     4015d9 <win+0x63>
  404b62:	e9 5a ca ff ff       	jmp    4015c1 <win+0x4b>
  404b67:	ba 00 01 00 00       	mov    edx,0x100
  404b6c:	48 89 ee             	mov    rsi,rbp
  404b6f:	e8 8c c6 ff ff       	call   401200 <read@plt>
  404b74:	85 c0                	test   eax,eax
  404b76:	7f 2a                	jg     404ba2 <win+0x362c>
  404b78:	e8 03 c6 ff ff       	call   401180 <__errno_location@plt>
  404b7d:	8b 38                	mov    edi,DWORD PTR [rax]
  404b7f:	e8 fc c6 ff ff       	call   401280 <strerror@plt>
  404b84:	bf 01 00 00 00       	mov    edi,0x1
  404b89:	48 8d 35 19 d5 00 00 	lea    rsi,[rip+0xd519]        # 4120a9 <_IO_stdin_used+0xa9>
  404b90:	48 89 c2             	mov    rdx,rax
  404b93:	31 c0                	xor    eax,eax
  404b95:	e8 96 c6 ff ff       	call   401230 <__printf_chk@plt>
  404b9a:	83 cf ff             	or     edi,0xffffffff
  404b9d:	e8 be c6 ff ff       	call   401260 <exit@plt>
  404ba2:	48 63 d0             	movsxd rdx,eax
  404ba5:	48 89 ee             	mov    rsi,rbp
  404ba8:	bf 01 00 00 00       	mov    edi,0x1
  404bad:	e8 ee c5 ff ff       	call   4011a0 <write@plt>
  404bb2:	48 8d 3d 9b d5 00 00 	lea    rdi,[rip+0xd59b]        # 412154 <_IO_stdin_used+0x154>
  404bb9:	e8 d2 c5 ff ff       	call   401190 <puts@plt>
  404bbe:	48 8d 3d 3f d4 00 00 	lea    rdi,[rip+0xd43f]        # 412004 <_IO_stdin_used+0x4>
  404bc5:	31 f6                	xor    esi,esi
  404bc7:	31 c0                	xor    eax,eax
  404bc9:	e8 82 c6 ff ff       	call   401250 <open@plt>
  404bce:	89 c7                	mov    edi,eax
  404bd0:	85 c0                	test   eax,eax
  404bd2:	79 34                	jns    404c08 <win+0x3692>
  404bd4:	e8 a7 c5 ff ff       	call   401180 <__errno_location@plt>
  404bd9:	8b 38                	mov    edi,DWORD PTR [rax]
  404bdb:	e8 a0 c6 ff ff       	call   401280 <strerror@plt>
  404be0:	48 8d 35 23 d4 00 00 	lea    rsi,[rip+0xd423]        # 41200a <_IO_stdin_used+0xa>
  404be7:	bf 01 00 00 00       	mov    edi,0x1
  404bec:	48 89 c2             	mov    rdx,rax
  404bef:	31 c0                	xor    eax,eax
  404bf1:	e8 3a c6 ff ff       	call   401230 <__printf_chk@plt>
  404bf6:	e8 e5 c5 ff ff       	call   4011e0 <geteuid@plt>
  404bfb:	85 c0                	test   eax,eax
  404bfd:	0f 84 d6 c9 ff ff    	je     4015d9 <win+0x63>
  404c03:	e9 b9 c9 ff ff       	jmp    4015c1 <win+0x4b>
  404c08:	ba 00 01 00 00       	mov    edx,0x100
  404c0d:	48 89 ee             	mov    rsi,rbp
  404c10:	e8 eb c5 ff ff       	call   401200 <read@plt>
  404c15:	85 c0                	test   eax,eax
  404c17:	7f 2a                	jg     404c43 <win+0x36cd>
  404c19:	e8 62 c5 ff ff       	call   401180 <__errno_location@plt>
  404c1e:	8b 38                	mov    edi,DWORD PTR [rax]
  404c20:	e8 5b c6 ff ff       	call   401280 <strerror@plt>
  404c25:	bf 01 00 00 00       	mov    edi,0x1
  404c2a:	48 8d 35 78 d4 00 00 	lea    rsi,[rip+0xd478]        # 4120a9 <_IO_stdin_used+0xa9>
  404c31:	48 89 c2             	mov    rdx,rax
  404c34:	31 c0                	xor    eax,eax
  404c36:	e8 f5 c5 ff ff       	call   401230 <__printf_chk@plt>
  404c3b:	83 cf ff             	or     edi,0xffffffff
  404c3e:	e8 1d c6 ff ff       	call   401260 <exit@plt>
  404c43:	48 63 d0             	movsxd rdx,eax
  404c46:	48 89 ee             	mov    rsi,rbp
  404c49:	bf 01 00 00 00       	mov    edi,0x1
  404c4e:	e8 4d c5 ff ff       	call   4011a0 <write@plt>
  404c53:	48 8d 3d fa d4 00 00 	lea    rdi,[rip+0xd4fa]        # 412154 <_IO_stdin_used+0x154>
  404c5a:	e8 31 c5 ff ff       	call   401190 <puts@plt>
  404c5f:	48 8d 3d 9e d3 00 00 	lea    rdi,[rip+0xd39e]        # 412004 <_IO_stdin_used+0x4>
  404c66:	31 f6                	xor    esi,esi
  404c68:	31 c0                	xor    eax,eax
  404c6a:	e8 e1 c5 ff ff       	call   401250 <open@plt>
  404c6f:	89 c7                	mov    edi,eax
  404c71:	85 c0                	test   eax,eax
  404c73:	79 34                	jns    404ca9 <win+0x3733>
  404c75:	e8 06 c5 ff ff       	call   401180 <__errno_location@plt>
  404c7a:	8b 38                	mov    edi,DWORD PTR [rax]
  404c7c:	e8 ff c5 ff ff       	call   401280 <strerror@plt>
  404c81:	48 8d 35 82 d3 00 00 	lea    rsi,[rip+0xd382]        # 41200a <_IO_stdin_used+0xa>
  404c88:	bf 01 00 00 00       	mov    edi,0x1
  404c8d:	48 89 c2             	mov    rdx,rax
  404c90:	31 c0                	xor    eax,eax
  404c92:	e8 99 c5 ff ff       	call   401230 <__printf_chk@plt>
  404c97:	e8 44 c5 ff ff       	call   4011e0 <geteuid@plt>
  404c9c:	85 c0                	test   eax,eax
  404c9e:	0f 84 35 c9 ff ff    	je     4015d9 <win+0x63>
  404ca4:	e9 18 c9 ff ff       	jmp    4015c1 <win+0x4b>
  404ca9:	ba 00 01 00 00       	mov    edx,0x100
  404cae:	48 89 ee             	mov    rsi,rbp
  404cb1:	e8 4a c5 ff ff       	call   401200 <read@plt>
  404cb6:	85 c0                	test   eax,eax
  404cb8:	7f 2a                	jg     404ce4 <win+0x376e>
  404cba:	e8 c1 c4 ff ff       	call   401180 <__errno_location@plt>
  404cbf:	8b 38                	mov    edi,DWORD PTR [rax]
  404cc1:	e8 ba c5 ff ff       	call   401280 <strerror@plt>
  404cc6:	bf 01 00 00 00       	mov    edi,0x1
  404ccb:	48 8d 35 d7 d3 00 00 	lea    rsi,[rip+0xd3d7]        # 4120a9 <_IO_stdin_used+0xa9>
  404cd2:	48 89 c2             	mov    rdx,rax
  404cd5:	31 c0                	xor    eax,eax
  404cd7:	e8 54 c5 ff ff       	call   401230 <__printf_chk@plt>
  404cdc:	83 cf ff             	or     edi,0xffffffff
  404cdf:	e8 7c c5 ff ff       	call   401260 <exit@plt>
  404ce4:	48 63 d0             	movsxd rdx,eax
  404ce7:	48 89 ee             	mov    rsi,rbp
  404cea:	bf 01 00 00 00       	mov    edi,0x1
  404cef:	e8 ac c4 ff ff       	call   4011a0 <write@plt>
  404cf4:	48 8d 3d 59 d4 00 00 	lea    rdi,[rip+0xd459]        # 412154 <_IO_stdin_used+0x154>
  404cfb:	e8 90 c4 ff ff       	call   401190 <puts@plt>
  404d00:	48 8d 3d fd d2 00 00 	lea    rdi,[rip+0xd2fd]        # 412004 <_IO_stdin_used+0x4>
  404d07:	31 f6                	xor    esi,esi
  404d09:	31 c0                	xor    eax,eax
  404d0b:	e8 40 c5 ff ff       	call   401250 <open@plt>
  404d10:	89 c7                	mov    edi,eax
  404d12:	85 c0                	test   eax,eax
  404d14:	79 34                	jns    404d4a <win+0x37d4>
  404d16:	e8 65 c4 ff ff       	call   401180 <__errno_location@plt>
  404d1b:	8b 38                	mov    edi,DWORD PTR [rax]
  404d1d:	e8 5e c5 ff ff       	call   401280 <strerror@plt>
  404d22:	48 8d 35 e1 d2 00 00 	lea    rsi,[rip+0xd2e1]        # 41200a <_IO_stdin_used+0xa>
  404d29:	bf 01 00 00 00       	mov    edi,0x1
  404d2e:	48 89 c2             	mov    rdx,rax
  404d31:	31 c0                	xor    eax,eax
  404d33:	e8 f8 c4 ff ff       	call   401230 <__printf_chk@plt>
  404d38:	e8 a3 c4 ff ff       	call   4011e0 <geteuid@plt>
  404d3d:	85 c0                	test   eax,eax
  404d3f:	0f 84 94 c8 ff ff    	je     4015d9 <win+0x63>
  404d45:	e9 77 c8 ff ff       	jmp    4015c1 <win+0x4b>
  404d4a:	ba 00 01 00 00       	mov    edx,0x100
  404d4f:	48 89 ee             	mov    rsi,rbp
  404d52:	e8 a9 c4 ff ff       	call   401200 <read@plt>
  404d57:	85 c0                	test   eax,eax
  404d59:	7f 2a                	jg     404d85 <win+0x380f>
  404d5b:	e8 20 c4 ff ff       	call   401180 <__errno_location@plt>
  404d60:	8b 38                	mov    edi,DWORD PTR [rax]
  404d62:	e8 19 c5 ff ff       	call   401280 <strerror@plt>
  404d67:	bf 01 00 00 00       	mov    edi,0x1
  404d6c:	48 8d 35 36 d3 00 00 	lea    rsi,[rip+0xd336]        # 4120a9 <_IO_stdin_used+0xa9>
  404d73:	48 89 c2             	mov    rdx,rax
  404d76:	31 c0                	xor    eax,eax
  404d78:	e8 b3 c4 ff ff       	call   401230 <__printf_chk@plt>
  404d7d:	83 cf ff             	or     edi,0xffffffff
  404d80:	e8 db c4 ff ff       	call   401260 <exit@plt>
  404d85:	48 63 d0             	movsxd rdx,eax
  404d88:	48 89 ee             	mov    rsi,rbp
  404d8b:	bf 01 00 00 00       	mov    edi,0x1
  404d90:	e8 0b c4 ff ff       	call   4011a0 <write@plt>
  404d95:	48 8d 3d b8 d3 00 00 	lea    rdi,[rip+0xd3b8]        # 412154 <_IO_stdin_used+0x154>
  404d9c:	e8 ef c3 ff ff       	call   401190 <puts@plt>
  404da1:	48 8d 3d 5c d2 00 00 	lea    rdi,[rip+0xd25c]        # 412004 <_IO_stdin_used+0x4>
  404da8:	31 f6                	xor    esi,esi
  404daa:	31 c0                	xor    eax,eax
  404dac:	e8 9f c4 ff ff       	call   401250 <open@plt>
  404db1:	89 c7                	mov    edi,eax
  404db3:	85 c0                	test   eax,eax
  404db5:	79 34                	jns    404deb <win+0x3875>
  404db7:	e8 c4 c3 ff ff       	call   401180 <__errno_location@plt>
  404dbc:	8b 38                	mov    edi,DWORD PTR [rax]
  404dbe:	e8 bd c4 ff ff       	call   401280 <strerror@plt>
  404dc3:	48 8d 35 40 d2 00 00 	lea    rsi,[rip+0xd240]        # 41200a <_IO_stdin_used+0xa>
  404dca:	bf 01 00 00 00       	mov    edi,0x1
  404dcf:	48 89 c2             	mov    rdx,rax
  404dd2:	31 c0                	xor    eax,eax
  404dd4:	e8 57 c4 ff ff       	call   401230 <__printf_chk@plt>
  404dd9:	e8 02 c4 ff ff       	call   4011e0 <geteuid@plt>
  404dde:	85 c0                	test   eax,eax
  404de0:	0f 84 f3 c7 ff ff    	je     4015d9 <win+0x63>
  404de6:	e9 d6 c7 ff ff       	jmp    4015c1 <win+0x4b>
  404deb:	ba 00 01 00 00       	mov    edx,0x100
  404df0:	48 89 ee             	mov    rsi,rbp
  404df3:	e8 08 c4 ff ff       	call   401200 <read@plt>
  404df8:	85 c0                	test   eax,eax
  404dfa:	7f 2a                	jg     404e26 <win+0x38b0>
  404dfc:	e8 7f c3 ff ff       	call   401180 <__errno_location@plt>
  404e01:	8b 38                	mov    edi,DWORD PTR [rax]
  404e03:	e8 78 c4 ff ff       	call   401280 <strerror@plt>
  404e08:	bf 01 00 00 00       	mov    edi,0x1
  404e0d:	48 8d 35 95 d2 00 00 	lea    rsi,[rip+0xd295]        # 4120a9 <_IO_stdin_used+0xa9>
  404e14:	48 89 c2             	mov    rdx,rax
  404e17:	31 c0                	xor    eax,eax
  404e19:	e8 12 c4 ff ff       	call   401230 <__printf_chk@plt>
  404e1e:	83 cf ff             	or     edi,0xffffffff
  404e21:	e8 3a c4 ff ff       	call   401260 <exit@plt>
  404e26:	48 63 d0             	movsxd rdx,eax
  404e29:	48 89 ee             	mov    rsi,rbp
  404e2c:	bf 01 00 00 00       	mov    edi,0x1
  404e31:	e8 6a c3 ff ff       	call   4011a0 <write@plt>
  404e36:	48 8d 3d 17 d3 00 00 	lea    rdi,[rip+0xd317]        # 412154 <_IO_stdin_used+0x154>
  404e3d:	e8 4e c3 ff ff       	call   401190 <puts@plt>
  404e42:	48 8d 3d bb d1 00 00 	lea    rdi,[rip+0xd1bb]        # 412004 <_IO_stdin_used+0x4>
  404e49:	31 f6                	xor    esi,esi
  404e4b:	31 c0                	xor    eax,eax
  404e4d:	e8 fe c3 ff ff       	call   401250 <open@plt>
  404e52:	89 c7                	mov    edi,eax
  404e54:	85 c0                	test   eax,eax
  404e56:	79 34                	jns    404e8c <win+0x3916>
  404e58:	e8 23 c3 ff ff       	call   401180 <__errno_location@plt>
  404e5d:	8b 38                	mov    edi,DWORD PTR [rax]
  404e5f:	e8 1c c4 ff ff       	call   401280 <strerror@plt>
  404e64:	48 8d 35 9f d1 00 00 	lea    rsi,[rip+0xd19f]        # 41200a <_IO_stdin_used+0xa>
  404e6b:	bf 01 00 00 00       	mov    edi,0x1
  404e70:	48 89 c2             	mov    rdx,rax
  404e73:	31 c0                	xor    eax,eax
  404e75:	e8 b6 c3 ff ff       	call   401230 <__printf_chk@plt>
  404e7a:	e8 61 c3 ff ff       	call   4011e0 <geteuid@plt>
  404e7f:	85 c0                	test   eax,eax
  404e81:	0f 84 52 c7 ff ff    	je     4015d9 <win+0x63>
  404e87:	e9 35 c7 ff ff       	jmp    4015c1 <win+0x4b>
  404e8c:	ba 00 01 00 00       	mov    edx,0x100
  404e91:	48 89 ee             	mov    rsi,rbp
  404e94:	e8 67 c3 ff ff       	call   401200 <read@plt>
  404e99:	85 c0                	test   eax,eax
  404e9b:	7f 2a                	jg     404ec7 <win+0x3951>
  404e9d:	e8 de c2 ff ff       	call   401180 <__errno_location@plt>
  404ea2:	8b 38                	mov    edi,DWORD PTR [rax]
  404ea4:	e8 d7 c3 ff ff       	call   401280 <strerror@plt>
  404ea9:	bf 01 00 00 00       	mov    edi,0x1
  404eae:	48 8d 35 f4 d1 00 00 	lea    rsi,[rip+0xd1f4]        # 4120a9 <_IO_stdin_used+0xa9>
  404eb5:	48 89 c2             	mov    rdx,rax
  404eb8:	31 c0                	xor    eax,eax
  404eba:	e8 71 c3 ff ff       	call   401230 <__printf_chk@plt>
  404ebf:	83 cf ff             	or     edi,0xffffffff
  404ec2:	e8 99 c3 ff ff       	call   401260 <exit@plt>
  404ec7:	48 63 d0             	movsxd rdx,eax
  404eca:	48 89 ee             	mov    rsi,rbp
  404ecd:	bf 01 00 00 00       	mov    edi,0x1
  404ed2:	e8 c9 c2 ff ff       	call   4011a0 <write@plt>
  404ed7:	48 8d 3d 76 d2 00 00 	lea    rdi,[rip+0xd276]        # 412154 <_IO_stdin_used+0x154>
  404ede:	e8 ad c2 ff ff       	call   401190 <puts@plt>
  404ee3:	48 8d 3d 1a d1 00 00 	lea    rdi,[rip+0xd11a]        # 412004 <_IO_stdin_used+0x4>
  404eea:	31 f6                	xor    esi,esi
  404eec:	31 c0                	xor    eax,eax
  404eee:	e8 5d c3 ff ff       	call   401250 <open@plt>
  404ef3:	89 c7                	mov    edi,eax
  404ef5:	85 c0                	test   eax,eax
  404ef7:	79 34                	jns    404f2d <win+0x39b7>
  404ef9:	e8 82 c2 ff ff       	call   401180 <__errno_location@plt>
  404efe:	8b 38                	mov    edi,DWORD PTR [rax]
  404f00:	e8 7b c3 ff ff       	call   401280 <strerror@plt>
  404f05:	48 8d 35 fe d0 00 00 	lea    rsi,[rip+0xd0fe]        # 41200a <_IO_stdin_used+0xa>
  404f0c:	bf 01 00 00 00       	mov    edi,0x1
  404f11:	48 89 c2             	mov    rdx,rax
  404f14:	31 c0                	xor    eax,eax
  404f16:	e8 15 c3 ff ff       	call   401230 <__printf_chk@plt>
  404f1b:	e8 c0 c2 ff ff       	call   4011e0 <geteuid@plt>
  404f20:	85 c0                	test   eax,eax
  404f22:	0f 84 b1 c6 ff ff    	je     4015d9 <win+0x63>
  404f28:	e9 94 c6 ff ff       	jmp    4015c1 <win+0x4b>
  404f2d:	ba 00 01 00 00       	mov    edx,0x100
  404f32:	48 89 ee             	mov    rsi,rbp
  404f35:	e8 c6 c2 ff ff       	call   401200 <read@plt>
  404f3a:	85 c0                	test   eax,eax
  404f3c:	7f 2a                	jg     404f68 <win+0x39f2>
  404f3e:	e8 3d c2 ff ff       	call   401180 <__errno_location@plt>
  404f43:	8b 38                	mov    edi,DWORD PTR [rax]
  404f45:	e8 36 c3 ff ff       	call   401280 <strerror@plt>
  404f4a:	bf 01 00 00 00       	mov    edi,0x1
  404f4f:	48 8d 35 53 d1 00 00 	lea    rsi,[rip+0xd153]        # 4120a9 <_IO_stdin_used+0xa9>
  404f56:	48 89 c2             	mov    rdx,rax
  404f59:	31 c0                	xor    eax,eax
  404f5b:	e8 d0 c2 ff ff       	call   401230 <__printf_chk@plt>
  404f60:	83 cf ff             	or     edi,0xffffffff
  404f63:	e8 f8 c2 ff ff       	call   401260 <exit@plt>
  404f68:	48 63 d0             	movsxd rdx,eax
  404f6b:	48 89 ee             	mov    rsi,rbp
  404f6e:	bf 01 00 00 00       	mov    edi,0x1
  404f73:	e8 28 c2 ff ff       	call   4011a0 <write@plt>
  404f78:	48 8d 3d d5 d1 00 00 	lea    rdi,[rip+0xd1d5]        # 412154 <_IO_stdin_used+0x154>
  404f7f:	e8 0c c2 ff ff       	call   401190 <puts@plt>
  404f84:	48 8d 3d 79 d0 00 00 	lea    rdi,[rip+0xd079]        # 412004 <_IO_stdin_used+0x4>
  404f8b:	31 f6                	xor    esi,esi
  404f8d:	31 c0                	xor    eax,eax
  404f8f:	e8 bc c2 ff ff       	call   401250 <open@plt>
  404f94:	89 c7                	mov    edi,eax
  404f96:	85 c0                	test   eax,eax
  404f98:	79 34                	jns    404fce <win+0x3a58>
  404f9a:	e8 e1 c1 ff ff       	call   401180 <__errno_location@plt>
  404f9f:	8b 38                	mov    edi,DWORD PTR [rax]
  404fa1:	e8 da c2 ff ff       	call   401280 <strerror@plt>
  404fa6:	48 8d 35 5d d0 00 00 	lea    rsi,[rip+0xd05d]        # 41200a <_IO_stdin_used+0xa>
  404fad:	bf 01 00 00 00       	mov    edi,0x1
  404fb2:	48 89 c2             	mov    rdx,rax
  404fb5:	31 c0                	xor    eax,eax
  404fb7:	e8 74 c2 ff ff       	call   401230 <__printf_chk@plt>
  404fbc:	e8 1f c2 ff ff       	call   4011e0 <geteuid@plt>
  404fc1:	85 c0                	test   eax,eax
  404fc3:	0f 84 10 c6 ff ff    	je     4015d9 <win+0x63>
  404fc9:	e9 f3 c5 ff ff       	jmp    4015c1 <win+0x4b>
  404fce:	ba 00 01 00 00       	mov    edx,0x100
  404fd3:	48 89 ee             	mov    rsi,rbp
  404fd6:	e8 25 c2 ff ff       	call   401200 <read@plt>
  404fdb:	85 c0                	test   eax,eax
  404fdd:	7f 2a                	jg     405009 <win+0x3a93>
  404fdf:	e8 9c c1 ff ff       	call   401180 <__errno_location@plt>
  404fe4:	8b 38                	mov    edi,DWORD PTR [rax]
  404fe6:	e8 95 c2 ff ff       	call   401280 <strerror@plt>
  404feb:	bf 01 00 00 00       	mov    edi,0x1
  404ff0:	48 8d 35 b2 d0 00 00 	lea    rsi,[rip+0xd0b2]        # 4120a9 <_IO_stdin_used+0xa9>
  404ff7:	48 89 c2             	mov    rdx,rax
  404ffa:	31 c0                	xor    eax,eax
  404ffc:	e8 2f c2 ff ff       	call   401230 <__printf_chk@plt>
  405001:	83 cf ff             	or     edi,0xffffffff
  405004:	e8 57 c2 ff ff       	call   401260 <exit@plt>
  405009:	48 63 d0             	movsxd rdx,eax
  40500c:	48 89 ee             	mov    rsi,rbp
  40500f:	bf 01 00 00 00       	mov    edi,0x1
  405014:	e8 87 c1 ff ff       	call   4011a0 <write@plt>
  405019:	48 8d 3d 34 d1 00 00 	lea    rdi,[rip+0xd134]        # 412154 <_IO_stdin_used+0x154>
  405020:	e8 6b c1 ff ff       	call   401190 <puts@plt>
  405025:	48 8d 3d d8 cf 00 00 	lea    rdi,[rip+0xcfd8]        # 412004 <_IO_stdin_used+0x4>
  40502c:	31 f6                	xor    esi,esi
  40502e:	31 c0                	xor    eax,eax
  405030:	e8 1b c2 ff ff       	call   401250 <open@plt>
  405035:	89 c7                	mov    edi,eax
  405037:	85 c0                	test   eax,eax
  405039:	79 34                	jns    40506f <win+0x3af9>
  40503b:	e8 40 c1 ff ff       	call   401180 <__errno_location@plt>
  405040:	8b 38                	mov    edi,DWORD PTR [rax]
  405042:	e8 39 c2 ff ff       	call   401280 <strerror@plt>
  405047:	48 8d 35 bc cf 00 00 	lea    rsi,[rip+0xcfbc]        # 41200a <_IO_stdin_used+0xa>
  40504e:	bf 01 00 00 00       	mov    edi,0x1
  405053:	48 89 c2             	mov    rdx,rax
  405056:	31 c0                	xor    eax,eax
  405058:	e8 d3 c1 ff ff       	call   401230 <__printf_chk@plt>
  40505d:	e8 7e c1 ff ff       	call   4011e0 <geteuid@plt>
  405062:	85 c0                	test   eax,eax
  405064:	0f 84 6f c5 ff ff    	je     4015d9 <win+0x63>
  40506a:	e9 52 c5 ff ff       	jmp    4015c1 <win+0x4b>
  40506f:	ba 00 01 00 00       	mov    edx,0x100
  405074:	48 89 ee             	mov    rsi,rbp
  405077:	e8 84 c1 ff ff       	call   401200 <read@plt>
  40507c:	85 c0                	test   eax,eax
  40507e:	7f 2a                	jg     4050aa <win+0x3b34>
  405080:	e8 fb c0 ff ff       	call   401180 <__errno_location@plt>
  405085:	8b 38                	mov    edi,DWORD PTR [rax]
  405087:	e8 f4 c1 ff ff       	call   401280 <strerror@plt>
  40508c:	bf 01 00 00 00       	mov    edi,0x1
  405091:	48 8d 35 11 d0 00 00 	lea    rsi,[rip+0xd011]        # 4120a9 <_IO_stdin_used+0xa9>
  405098:	48 89 c2             	mov    rdx,rax
  40509b:	31 c0                	xor    eax,eax
  40509d:	e8 8e c1 ff ff       	call   401230 <__printf_chk@plt>
  4050a2:	83 cf ff             	or     edi,0xffffffff
  4050a5:	e8 b6 c1 ff ff       	call   401260 <exit@plt>
  4050aa:	48 63 d0             	movsxd rdx,eax
  4050ad:	48 89 ee             	mov    rsi,rbp
  4050b0:	bf 01 00 00 00       	mov    edi,0x1
  4050b5:	e8 e6 c0 ff ff       	call   4011a0 <write@plt>
  4050ba:	48 8d 3d 93 d0 00 00 	lea    rdi,[rip+0xd093]        # 412154 <_IO_stdin_used+0x154>
  4050c1:	e8 ca c0 ff ff       	call   401190 <puts@plt>
  4050c6:	48 8d 3d 37 cf 00 00 	lea    rdi,[rip+0xcf37]        # 412004 <_IO_stdin_used+0x4>
  4050cd:	31 f6                	xor    esi,esi
  4050cf:	31 c0                	xor    eax,eax
  4050d1:	e8 7a c1 ff ff       	call   401250 <open@plt>
  4050d6:	89 c7                	mov    edi,eax
  4050d8:	85 c0                	test   eax,eax
  4050da:	79 34                	jns    405110 <win+0x3b9a>
  4050dc:	e8 9f c0 ff ff       	call   401180 <__errno_location@plt>
  4050e1:	8b 38                	mov    edi,DWORD PTR [rax]
  4050e3:	e8 98 c1 ff ff       	call   401280 <strerror@plt>
  4050e8:	48 8d 35 1b cf 00 00 	lea    rsi,[rip+0xcf1b]        # 41200a <_IO_stdin_used+0xa>
  4050ef:	bf 01 00 00 00       	mov    edi,0x1
  4050f4:	48 89 c2             	mov    rdx,rax
  4050f7:	31 c0                	xor    eax,eax
  4050f9:	e8 32 c1 ff ff       	call   401230 <__printf_chk@plt>
  4050fe:	e8 dd c0 ff ff       	call   4011e0 <geteuid@plt>
  405103:	85 c0                	test   eax,eax
  405105:	0f 84 ce c4 ff ff    	je     4015d9 <win+0x63>
  40510b:	e9 b1 c4 ff ff       	jmp    4015c1 <win+0x4b>
  405110:	ba 00 01 00 00       	mov    edx,0x100
  405115:	48 89 ee             	mov    rsi,rbp
  405118:	e8 e3 c0 ff ff       	call   401200 <read@plt>
  40511d:	85 c0                	test   eax,eax
  40511f:	7f 2a                	jg     40514b <win+0x3bd5>
  405121:	e8 5a c0 ff ff       	call   401180 <__errno_location@plt>
  405126:	8b 38                	mov    edi,DWORD PTR [rax]
  405128:	e8 53 c1 ff ff       	call   401280 <strerror@plt>
  40512d:	bf 01 00 00 00       	mov    edi,0x1
  405132:	48 8d 35 70 cf 00 00 	lea    rsi,[rip+0xcf70]        # 4120a9 <_IO_stdin_used+0xa9>
  405139:	48 89 c2             	mov    rdx,rax
  40513c:	31 c0                	xor    eax,eax
  40513e:	e8 ed c0 ff ff       	call   401230 <__printf_chk@plt>
  405143:	83 cf ff             	or     edi,0xffffffff
  405146:	e8 15 c1 ff ff       	call   401260 <exit@plt>
  40514b:	48 63 d0             	movsxd rdx,eax
  40514e:	48 89 ee             	mov    rsi,rbp
  405151:	bf 01 00 00 00       	mov    edi,0x1
  405156:	e8 45 c0 ff ff       	call   4011a0 <write@plt>
  40515b:	48 8d 3d f2 cf 00 00 	lea    rdi,[rip+0xcff2]        # 412154 <_IO_stdin_used+0x154>
  405162:	e8 29 c0 ff ff       	call   401190 <puts@plt>
  405167:	48 8d 3d 96 ce 00 00 	lea    rdi,[rip+0xce96]        # 412004 <_IO_stdin_used+0x4>
  40516e:	31 f6                	xor    esi,esi
  405170:	31 c0                	xor    eax,eax
  405172:	e8 d9 c0 ff ff       	call   401250 <open@plt>
  405177:	89 c7                	mov    edi,eax
  405179:	85 c0                	test   eax,eax
  40517b:	79 34                	jns    4051b1 <win+0x3c3b>
  40517d:	e8 fe bf ff ff       	call   401180 <__errno_location@plt>
  405182:	8b 38                	mov    edi,DWORD PTR [rax]
  405184:	e8 f7 c0 ff ff       	call   401280 <strerror@plt>
  405189:	48 8d 35 7a ce 00 00 	lea    rsi,[rip+0xce7a]        # 41200a <_IO_stdin_used+0xa>
  405190:	bf 01 00 00 00       	mov    edi,0x1
  405195:	48 89 c2             	mov    rdx,rax
  405198:	31 c0                	xor    eax,eax
  40519a:	e8 91 c0 ff ff       	call   401230 <__printf_chk@plt>
  40519f:	e8 3c c0 ff ff       	call   4011e0 <geteuid@plt>
  4051a4:	85 c0                	test   eax,eax
  4051a6:	0f 84 2d c4 ff ff    	je     4015d9 <win+0x63>
  4051ac:	e9 10 c4 ff ff       	jmp    4015c1 <win+0x4b>
  4051b1:	ba 00 01 00 00       	mov    edx,0x100
  4051b6:	48 89 ee             	mov    rsi,rbp
  4051b9:	e8 42 c0 ff ff       	call   401200 <read@plt>
  4051be:	85 c0                	test   eax,eax
  4051c0:	7f 2a                	jg     4051ec <win+0x3c76>
  4051c2:	e8 b9 bf ff ff       	call   401180 <__errno_location@plt>
  4051c7:	8b 38                	mov    edi,DWORD PTR [rax]
  4051c9:	e8 b2 c0 ff ff       	call   401280 <strerror@plt>
  4051ce:	bf 01 00 00 00       	mov    edi,0x1
  4051d3:	48 8d 35 cf ce 00 00 	lea    rsi,[rip+0xcecf]        # 4120a9 <_IO_stdin_used+0xa9>
  4051da:	48 89 c2             	mov    rdx,rax
  4051dd:	31 c0                	xor    eax,eax
  4051df:	e8 4c c0 ff ff       	call   401230 <__printf_chk@plt>
  4051e4:	83 cf ff             	or     edi,0xffffffff
  4051e7:	e8 74 c0 ff ff       	call   401260 <exit@plt>
  4051ec:	48 63 d0             	movsxd rdx,eax
  4051ef:	48 89 ee             	mov    rsi,rbp
  4051f2:	bf 01 00 00 00       	mov    edi,0x1
  4051f7:	e8 a4 bf ff ff       	call   4011a0 <write@plt>
  4051fc:	48 8d 3d 51 cf 00 00 	lea    rdi,[rip+0xcf51]        # 412154 <_IO_stdin_used+0x154>
  405203:	e8 88 bf ff ff       	call   401190 <puts@plt>
  405208:	48 8d 3d f5 cd 00 00 	lea    rdi,[rip+0xcdf5]        # 412004 <_IO_stdin_used+0x4>
  40520f:	31 f6                	xor    esi,esi
  405211:	31 c0                	xor    eax,eax
  405213:	e8 38 c0 ff ff       	call   401250 <open@plt>
  405218:	89 c7                	mov    edi,eax
  40521a:	85 c0                	test   eax,eax
  40521c:	79 34                	jns    405252 <win+0x3cdc>
  40521e:	e8 5d bf ff ff       	call   401180 <__errno_location@plt>
  405223:	8b 38                	mov    edi,DWORD PTR [rax]
  405225:	e8 56 c0 ff ff       	call   401280 <strerror@plt>
  40522a:	48 8d 35 d9 cd 00 00 	lea    rsi,[rip+0xcdd9]        # 41200a <_IO_stdin_used+0xa>
  405231:	bf 01 00 00 00       	mov    edi,0x1
  405236:	48 89 c2             	mov    rdx,rax
  405239:	31 c0                	xor    eax,eax
  40523b:	e8 f0 bf ff ff       	call   401230 <__printf_chk@plt>
  405240:	e8 9b bf ff ff       	call   4011e0 <geteuid@plt>
  405245:	85 c0                	test   eax,eax
  405247:	0f 84 8c c3 ff ff    	je     4015d9 <win+0x63>
  40524d:	e9 6f c3 ff ff       	jmp    4015c1 <win+0x4b>
  405252:	ba 00 01 00 00       	mov    edx,0x100
  405257:	48 89 ee             	mov    rsi,rbp
  40525a:	e8 a1 bf ff ff       	call   401200 <read@plt>
  40525f:	85 c0                	test   eax,eax
  405261:	7f 2a                	jg     40528d <win+0x3d17>
  405263:	e8 18 bf ff ff       	call   401180 <__errno_location@plt>
  405268:	8b 38                	mov    edi,DWORD PTR [rax]
  40526a:	e8 11 c0 ff ff       	call   401280 <strerror@plt>
  40526f:	bf 01 00 00 00       	mov    edi,0x1
  405274:	48 8d 35 2e ce 00 00 	lea    rsi,[rip+0xce2e]        # 4120a9 <_IO_stdin_used+0xa9>
  40527b:	48 89 c2             	mov    rdx,rax
  40527e:	31 c0                	xor    eax,eax
  405280:	e8 ab bf ff ff       	call   401230 <__printf_chk@plt>
  405285:	83 cf ff             	or     edi,0xffffffff
  405288:	e8 d3 bf ff ff       	call   401260 <exit@plt>
  40528d:	48 63 d0             	movsxd rdx,eax
  405290:	48 89 ee             	mov    rsi,rbp
  405293:	bf 01 00 00 00       	mov    edi,0x1
  405298:	e8 03 bf ff ff       	call   4011a0 <write@plt>
  40529d:	48 8d 3d b0 ce 00 00 	lea    rdi,[rip+0xceb0]        # 412154 <_IO_stdin_used+0x154>
  4052a4:	e8 e7 be ff ff       	call   401190 <puts@plt>
  4052a9:	48 8d 3d 54 cd 00 00 	lea    rdi,[rip+0xcd54]        # 412004 <_IO_stdin_used+0x4>
  4052b0:	31 f6                	xor    esi,esi
  4052b2:	31 c0                	xor    eax,eax
  4052b4:	e8 97 bf ff ff       	call   401250 <open@plt>
  4052b9:	89 c7                	mov    edi,eax
  4052bb:	85 c0                	test   eax,eax
  4052bd:	79 34                	jns    4052f3 <win+0x3d7d>
  4052bf:	e8 bc be ff ff       	call   401180 <__errno_location@plt>
  4052c4:	8b 38                	mov    edi,DWORD PTR [rax]
  4052c6:	e8 b5 bf ff ff       	call   401280 <strerror@plt>
  4052cb:	48 8d 35 38 cd 00 00 	lea    rsi,[rip+0xcd38]        # 41200a <_IO_stdin_used+0xa>
  4052d2:	bf 01 00 00 00       	mov    edi,0x1
  4052d7:	48 89 c2             	mov    rdx,rax
  4052da:	31 c0                	xor    eax,eax
  4052dc:	e8 4f bf ff ff       	call   401230 <__printf_chk@plt>
  4052e1:	e8 fa be ff ff       	call   4011e0 <geteuid@plt>
  4052e6:	85 c0                	test   eax,eax
  4052e8:	0f 84 eb c2 ff ff    	je     4015d9 <win+0x63>
  4052ee:	e9 ce c2 ff ff       	jmp    4015c1 <win+0x4b>
  4052f3:	ba 00 01 00 00       	mov    edx,0x100
  4052f8:	48 89 ee             	mov    rsi,rbp
  4052fb:	e8 00 bf ff ff       	call   401200 <read@plt>
  405300:	85 c0                	test   eax,eax
  405302:	7f 2a                	jg     40532e <win+0x3db8>
  405304:	e8 77 be ff ff       	call   401180 <__errno_location@plt>
  405309:	8b 38                	mov    edi,DWORD PTR [rax]
  40530b:	e8 70 bf ff ff       	call   401280 <strerror@plt>
  405310:	bf 01 00 00 00       	mov    edi,0x1
  405315:	48 8d 35 8d cd 00 00 	lea    rsi,[rip+0xcd8d]        # 4120a9 <_IO_stdin_used+0xa9>
  40531c:	48 89 c2             	mov    rdx,rax
  40531f:	31 c0                	xor    eax,eax
  405321:	e8 0a bf ff ff       	call   401230 <__printf_chk@plt>
  405326:	83 cf ff             	or     edi,0xffffffff
  405329:	e8 32 bf ff ff       	call   401260 <exit@plt>
  40532e:	48 63 d0             	movsxd rdx,eax
  405331:	48 89 ee             	mov    rsi,rbp
  405334:	bf 01 00 00 00       	mov    edi,0x1
  405339:	e8 62 be ff ff       	call   4011a0 <write@plt>
  40533e:	48 8d 3d 0f ce 00 00 	lea    rdi,[rip+0xce0f]        # 412154 <_IO_stdin_used+0x154>
  405345:	e8 46 be ff ff       	call   401190 <puts@plt>
  40534a:	48 8d 3d b3 cc 00 00 	lea    rdi,[rip+0xccb3]        # 412004 <_IO_stdin_used+0x4>
  405351:	31 f6                	xor    esi,esi
  405353:	31 c0                	xor    eax,eax
  405355:	e8 f6 be ff ff       	call   401250 <open@plt>
  40535a:	89 c7                	mov    edi,eax
  40535c:	85 c0                	test   eax,eax
  40535e:	79 34                	jns    405394 <win+0x3e1e>
  405360:	e8 1b be ff ff       	call   401180 <__errno_location@plt>
  405365:	8b 38                	mov    edi,DWORD PTR [rax]
  405367:	e8 14 bf ff ff       	call   401280 <strerror@plt>
  40536c:	48 8d 35 97 cc 00 00 	lea    rsi,[rip+0xcc97]        # 41200a <_IO_stdin_used+0xa>
  405373:	bf 01 00 00 00       	mov    edi,0x1
  405378:	48 89 c2             	mov    rdx,rax
  40537b:	31 c0                	xor    eax,eax
  40537d:	e8 ae be ff ff       	call   401230 <__printf_chk@plt>
  405382:	e8 59 be ff ff       	call   4011e0 <geteuid@plt>
  405387:	85 c0                	test   eax,eax
  405389:	0f 84 4a c2 ff ff    	je     4015d9 <win+0x63>
  40538f:	e9 2d c2 ff ff       	jmp    4015c1 <win+0x4b>
  405394:	ba 00 01 00 00       	mov    edx,0x100
  405399:	48 89 ee             	mov    rsi,rbp
  40539c:	e8 5f be ff ff       	call   401200 <read@plt>
  4053a1:	85 c0                	test   eax,eax
  4053a3:	7f 2a                	jg     4053cf <win+0x3e59>
  4053a5:	e8 d6 bd ff ff       	call   401180 <__errno_location@plt>
  4053aa:	8b 38                	mov    edi,DWORD PTR [rax]
  4053ac:	e8 cf be ff ff       	call   401280 <strerror@plt>
  4053b1:	bf 01 00 00 00       	mov    edi,0x1
  4053b6:	48 8d 35 ec cc 00 00 	lea    rsi,[rip+0xccec]        # 4120a9 <_IO_stdin_used+0xa9>
  4053bd:	48 89 c2             	mov    rdx,rax
  4053c0:	31 c0                	xor    eax,eax
  4053c2:	e8 69 be ff ff       	call   401230 <__printf_chk@plt>
  4053c7:	83 cf ff             	or     edi,0xffffffff
  4053ca:	e8 91 be ff ff       	call   401260 <exit@plt>
  4053cf:	48 63 d0             	movsxd rdx,eax
  4053d2:	48 89 ee             	mov    rsi,rbp
  4053d5:	bf 01 00 00 00       	mov    edi,0x1
  4053da:	e8 c1 bd ff ff       	call   4011a0 <write@plt>
  4053df:	48 8d 3d 6e cd 00 00 	lea    rdi,[rip+0xcd6e]        # 412154 <_IO_stdin_used+0x154>
  4053e6:	e8 a5 bd ff ff       	call   401190 <puts@plt>
  4053eb:	48 8d 3d 12 cc 00 00 	lea    rdi,[rip+0xcc12]        # 412004 <_IO_stdin_used+0x4>
